Archive member included to satisfy reference by file (symbol)

tools/agbcc/lib/libgcc.a(_call_via_rX.o)
                              build/sa1/asm/core.o (_call_via_r0)
tools/agbcc/lib/libgcc.a(_divsi3.o)
                              build/sa1/asm/sprite.o (__divsi3)
tools/agbcc/lib/libgcc.a(_dvmd_tls.o)
                              tools/agbcc/lib/libgcc.a(_divsi3.o) (__div0)
tools/agbcc/lib/libgcc.a(_modsi3.o)
                              build/sa1/asm/bosses.o (__modsi3)
tools/agbcc/lib/libgcc.a(_udivsi3.o)
                              build/sa1/asm/sprite_4.o (__udivsi3)
tools/agbcc/lib/libgcc.a(_umodsi3.o)
                              build/sa1/asm/ia_itembox_chaohunt.o (__umodsi3)
tools/agbcc/lib/libgcc.a(dp-bit.o)
                              build/sa1/asm/game_1.o (__muldf3)
tools/agbcc/lib/libgcc.a(fp-bit.o)
                              build/sa1/asm/bosses.o (__addsf3)
tools/agbcc/lib/libgcc.a(_lshrdi3.o)
                              tools/agbcc/lib/libgcc.a(dp-bit.o) (__lshrdi3)
tools/agbcc/lib/libgcc.a(_muldi3.o)
                              tools/agbcc/lib/libgcc.a(dp-bit.o) (__muldi3)
tools/agbcc/lib/libgcc.a(_negdi2.o)
                              tools/agbcc/lib/libgcc.a(dp-bit.o) (__negdi2)
tools/agbcc/lib/libc.a(memcpy.o)
                              build/sa1/asm/sprite.o (memcpy)
tools/agbcc/lib/libc.a(memset.o)
                              build/sa1/asm/sprite_4.o (memset)

Discarded input sections

 .data          0x0000000000000000        0x0 build/sa1/asm/rom_header.o
 .bss           0x0000000000000000        0x0 build/sa1/asm/rom_header.o
 .ARM.attributes
                0x0000000000000000       0x20 build/sa1/asm/rom_header.o
 .data          0x0000000000000000        0x0 build/sa1/asm/crt0.o
 .bss           0x0000000000000000        0x0 build/sa1/asm/crt0.o
 .ARM.attributes
                0x0000000000000000       0x20 build/sa1/asm/crt0.o
 .data          0x0000000000000000        0x0 build/sa1/asm/multi_sio_asm.o
 .bss           0x0000000000000000        0x0 build/sa1/asm/multi_sio_asm.o
 .ARM.attributes
                0x0000000000000000       0x20 build/sa1/asm/multi_sio_asm.o
 .data          0x0000000000000000        0x0 build/sa1/asm/rom_header_old.o
 .bss           0x0000000000000000        0x0 build/sa1/asm/rom_header_old.o
 .ARM.attributes
                0x0000000000000000       0x20 build/sa1/asm/rom_header_old.o
 .data          0x0000000000000000        0x0 build/sa1/asm/core.o
 .bss           0x0000000000000000        0x0 build/sa1/asm/core.o
 .ARM.attributes
                0x0000000000000000       0x20 build/sa1/asm/core.o
 .data          0x0000000000000000        0x0 build/sa1/src/main.o
 .bss           0x0000000000000000        0x0 build/sa1/src/main.o
 .ARM.attributes
                0x0000000000000000       0x20 build/sa1/src/main.o
 COMMON         0x0000000000000000        0x0 build/sa1/src/main.o
 .data          0x0000000000000000        0x0 build/sa1/src/task.o
 .bss           0x0000000000000000        0x0 build/sa1/src/task.o
 .ARM.attributes
                0x0000000000000000       0x20 build/sa1/src/task.o
 .data          0x0000000000000000        0x0 build/sa1/asm/bg_update.o
 .bss           0x0000000000000000        0x0 build/sa1/asm/bg_update.o
 .ARM.attributes
                0x0000000000000000       0x20 build/sa1/asm/bg_update.o
 .data          0x0000000000000000        0x0 build/sa1/asm/animation_commands_bg.o
 .bss           0x0000000000000000        0x0 build/sa1/asm/animation_commands_bg.o
 .ARM.attributes
                0x0000000000000000       0x20 build/sa1/asm/animation_commands_bg.o
 .data          0x0000000000000000        0x0 build/sa1/asm/sprite.o
 .bss           0x0000000000000000        0x0 build/sa1/asm/sprite.o
 .ARM.attributes
                0x0000000000000000       0x20 build/sa1/asm/sprite.o
 .data          0x0000000000000000        0x0 build/sa1/asm/animation_commands.o
 .bss           0x0000000000000000        0x0 build/sa1/asm/animation_commands.o
 .ARM.attributes
                0x0000000000000000       0x20 build/sa1/asm/animation_commands.o
 .data          0x0000000000000000        0x0 build/sa1/asm/sprite_4.o
 .bss           0x0000000000000000        0x0 build/sa1/asm/sprite_4.o
 .ARM.attributes
                0x0000000000000000       0x20 build/sa1/asm/sprite_4.o
 .data          0x0000000000000000        0x0 build/sa1/asm/malloc_ewram.o
 .bss           0x0000000000000000        0x0 build/sa1/asm/malloc_ewram.o
 .ARM.attributes
                0x0000000000000000       0x20 build/sa1/asm/malloc_ewram.o
 .data          0x0000000000000000        0x0 build/sa1/asm/malloc_vram.o
 .bss           0x0000000000000000        0x0 build/sa1/asm/malloc_vram.o
 .ARM.attributes
                0x0000000000000000       0x20 build/sa1/asm/malloc_vram.o
 .data          0x0000000000000000        0x0 build/sa1/asm/multi_sio.o
 .bss           0x0000000000000000        0x0 build/sa1/asm/multi_sio.o
 .ARM.attributes
                0x0000000000000000       0x20 build/sa1/asm/multi_sio.o
 .data          0x0000000000000000        0x0 build/sa1/asm/multi_boot.o
 .bss           0x0000000000000000        0x0 build/sa1/asm/multi_boot.o
 .ARM.attributes
                0x0000000000000000       0x20 build/sa1/asm/multi_boot.o
 .data          0x0000000000000000        0x0 build/sa1/asm/sio32_multi_load.o
 .bss           0x0000000000000000        0x0 build/sa1/asm/sio32_multi_load.o
 .ARM.attributes
                0x0000000000000000       0x20 build/sa1/asm/sio32_multi_load.o
 .data          0x0000000000000000        0x0 build/sa1/asm/stage__rings_manager.o
 .bss           0x0000000000000000        0x0 build/sa1/asm/stage__rings_manager.o
 .ARM.attributes
                0x0000000000000000       0x20 build/sa1/asm/stage__rings_manager.o
 .data          0x0000000000000000        0x0 build/sa1/asm/stage__entities_manager.o
 .bss           0x0000000000000000        0x0 build/sa1/asm/stage__entities_manager.o
 .ARM.attributes
                0x0000000000000000       0x20 build/sa1/asm/stage__entities_manager.o
 .data          0x0000000000000000        0x0 build/sa1/asm/game_0.o
 .bss           0x0000000000000000        0x0 build/sa1/asm/game_0.o
 .ARM.attributes
                0x0000000000000000       0x20 build/sa1/asm/game_0.o
 .data          0x0000000000000000        0x0 build/sa1/asm/ia_itembox_chaohunt.o
 .bss           0x0000000000000000        0x0 build/sa1/asm/ia_itembox_chaohunt.o
 .ARM.attributes
                0x0000000000000000       0x20 build/sa1/asm/ia_itembox_chaohunt.o
 .data          0x0000000000000000        0x0 build/sa1/asm/game_tasks_0.o
 .bss           0x0000000000000000        0x0 build/sa1/asm/game_tasks_0.o
 .ARM.attributes
                0x0000000000000000       0x20 build/sa1/asm/game_tasks_0.o
 .data          0x0000000000000000        0x0 build/sa1/asm/game_tasks_1.o
 .bss           0x0000000000000000        0x0 build/sa1/asm/game_tasks_1.o
 .ARM.attributes
                0x0000000000000000       0x20 build/sa1/asm/game_tasks_1.o
 .data          0x0000000000000000        0x0 build/sa1/asm/enemy_kiki.o
 .bss           0x0000000000000000        0x0 build/sa1/asm/enemy_kiki.o
 .ARM.attributes
                0x0000000000000000       0x20 build/sa1/asm/enemy_kiki.o
 .data          0x0000000000000000        0x0 build/sa1/asm/enemy_buzzer.o
 .bss           0x0000000000000000        0x0 build/sa1/asm/enemy_buzzer.o
 .ARM.attributes
                0x0000000000000000       0x20 build/sa1/asm/enemy_buzzer.o
 .data          0x0000000000000000        0x0 build/sa1/asm/collect_ring_effect.o
 .bss           0x0000000000000000        0x0 build/sa1/asm/collect_ring_effect.o
 .ARM.attributes
                0x0000000000000000       0x20 build/sa1/asm/collect_ring_effect.o
 .data          0x0000000000000000        0x0 build/sa1/asm/item_box.o
 .bss           0x0000000000000000        0x0 build/sa1/asm/item_box.o
 .ARM.attributes
                0x0000000000000000       0x20 build/sa1/asm/item_box.o
 .data          0x0000000000000000        0x0 build/sa1/asm/ia_stage_goal.o
 .bss           0x0000000000000000        0x0 build/sa1/asm/ia_stage_goal.o
 .ARM.attributes
                0x0000000000000000       0x20 build/sa1/asm/ia_stage_goal.o
 .data          0x0000000000000000        0x0 build/sa1/src/sakit/dust_cloud.o
 .bss           0x0000000000000000        0x0 build/sa1/src/sakit/dust_cloud.o
 .ARM.attributes
                0x0000000000000000       0x20 build/sa1/src/sakit/dust_cloud.o
 .data          0x0000000000000000        0x0 build/sa1/asm/ia_spikes.o
 .bss           0x0000000000000000        0x0 build/sa1/asm/ia_spikes.o
 .ARM.attributes
                0x0000000000000000       0x20 build/sa1/asm/ia_spikes.o
 .data          0x0000000000000000        0x0 build/sa1/asm/ia_checkpoint.o
 .bss           0x0000000000000000        0x0 build/sa1/asm/ia_checkpoint.o
 .ARM.attributes
                0x0000000000000000       0x20 build/sa1/asm/ia_checkpoint.o
 .data          0x0000000000000000        0x0 build/sa1/asm/ia_spring.o
 .bss           0x0000000000000000        0x0 build/sa1/asm/ia_spring.o
 .ARM.attributes
                0x0000000000000000       0x20 build/sa1/asm/ia_spring.o
 .data          0x0000000000000000        0x0 build/sa1/asm/ia_decoration.o
 .bss           0x0000000000000000        0x0 build/sa1/asm/ia_decoration.o
 .ARM.attributes
                0x0000000000000000       0x20 build/sa1/asm/ia_decoration.o
 .data          0x0000000000000000        0x0 build/sa1/asm/ia_toggle_player_layer.o
 .bss           0x0000000000000000        0x0 build/sa1/asm/ia_toggle_player_layer.o
 .ARM.attributes
                0x0000000000000000       0x20 build/sa1/asm/ia_toggle_player_layer.o
 .data          0x0000000000000000        0x0 build/sa1/asm/ia_grind_rail.o
 .bss           0x0000000000000000        0x0 build/sa1/asm/ia_grind_rail.o
 .ARM.attributes
                0x0000000000000000       0x20 build/sa1/asm/ia_grind_rail.o
 .data          0x0000000000000000        0x0 build/sa1/asm/ia_platform_thin.o
 .bss           0x0000000000000000        0x0 build/sa1/asm/ia_platform_thin.o
 .ARM.attributes
                0x0000000000000000       0x20 build/sa1/asm/ia_platform_thin.o
 .data          0x0000000000000000        0x0 build/sa1/asm/sakit__ring__magnetic_ring.o
 .bss           0x0000000000000000        0x0 build/sa1/asm/sakit__ring__magnetic_ring.o
 .ARM.attributes
                0x0000000000000000       0x20 build/sa1/asm/sakit__ring__magnetic_ring.o
 .data          0x0000000000000000        0x0 build/sa1/asm/ia_platform_crumbling.o
 .bss           0x0000000000000000        0x0 build/sa1/asm/ia_platform_crumbling.o
 .ARM.attributes
                0x0000000000000000       0x20 build/sa1/asm/ia_platform_crumbling.o
 .data          0x0000000000000000        0x0 build/sa1/asm/ia_to_be_continued_text.o
 .bss           0x0000000000000000        0x0 build/sa1/asm/ia_to_be_continued_text.o
 .ARM.attributes
                0x0000000000000000       0x20 build/sa1/asm/ia_to_be_continued_text.o
 .data          0x0000000000000000        0x0 build/sa1/asm/sound_unk.o
 .bss           0x0000000000000000        0x0 build/sa1/asm/sound_unk.o
 .ARM.attributes
                0x0000000000000000       0x20 build/sa1/asm/sound_unk.o
 .data          0x0000000000000000        0x0 build/sa1/asm/boss_1.o
 .bss           0x0000000000000000        0x0 build/sa1/asm/boss_1.o
 .ARM.attributes
                0x0000000000000000       0x20 build/sa1/asm/boss_1.o
 .data          0x0000000000000000        0x0 build/sa1/asm/ia_breakable_wall.o
 .bss           0x0000000000000000        0x0 build/sa1/asm/ia_breakable_wall.o
 .ARM.attributes
                0x0000000000000000       0x20 build/sa1/asm/ia_breakable_wall.o
 .data          0x0000000000000000        0x0 build/sa1/asm/game_1.o
 .bss           0x0000000000000000        0x0 build/sa1/asm/game_1.o
 .ARM.attributes
                0x0000000000000000       0x20 build/sa1/asm/game_1.o
 .data          0x0000000000000000        0x0 build/sa1/asm/bosses.o
 .bss           0x0000000000000000        0x0 build/sa1/asm/bosses.o
 .ARM.attributes
                0x0000000000000000       0x20 build/sa1/asm/bosses.o
 .data          0x0000000000000000        0x0 build/sa1/asm/game_1_1.o
 .bss           0x0000000000000000        0x0 build/sa1/asm/game_1_1.o
 .ARM.attributes
                0x0000000000000000       0x20 build/sa1/asm/game_1_1.o
 .data          0x0000000000000000        0x0 build/sa1/src/input_recorder.o
 .bss           0x0000000000000000        0x0 build/sa1/src/input_recorder.o
 .ARM.attributes
                0x0000000000000000       0x20 build/sa1/src/input_recorder.o
 .data          0x0000000000000000        0x0 build/sa1/asm/game_1_2.o
 .bss           0x0000000000000000        0x0 build/sa1/asm/game_1_2.o
 .ARM.attributes
                0x0000000000000000       0x20 build/sa1/asm/game_1_2.o
 .data          0x0000000000000000        0x0 build/sa1/asm/ia_half_pipe.o
 .bss           0x0000000000000000        0x0 build/sa1/asm/ia_half_pipe.o
 .ARM.attributes
                0x0000000000000000       0x20 build/sa1/asm/ia_half_pipe.o
 .data          0x0000000000000000        0x0 build/sa1/asm/ia_034.o
 .bss           0x0000000000000000        0x0 build/sa1/asm/ia_034.o
 .ARM.attributes
                0x0000000000000000       0x20 build/sa1/asm/ia_034.o
 .data          0x0000000000000000        0x0 build/sa1/asm/ia_mini_loop_base.o
 .bss           0x0000000000000000        0x0 build/sa1/asm/ia_mini_loop_base.o
 .ARM.attributes
                0x0000000000000000       0x20 build/sa1/asm/ia_mini_loop_base.o
 .data          0x0000000000000000        0x0 build/sa1/asm/ia_water_bridge.o
 .bss           0x0000000000000000        0x0 build/sa1/asm/ia_water_bridge.o
 .ARM.attributes
                0x0000000000000000       0x20 build/sa1/asm/ia_water_bridge.o
 .data          0x0000000000000000        0x0 build/sa1/asm/ia_043.o
 .bss           0x0000000000000000        0x0 build/sa1/asm/ia_043.o
 .ARM.attributes
                0x0000000000000000       0x20 build/sa1/asm/ia_043.o
 .data          0x0000000000000000        0x0 build/sa1/asm/ia_mini_loop.o
 .bss           0x0000000000000000        0x0 build/sa1/asm/ia_mini_loop.o
 .ARM.attributes
                0x0000000000000000       0x20 build/sa1/asm/ia_mini_loop.o
 .data          0x0000000000000000        0x0 build/sa1/asm/ia_039.o
 .bss           0x0000000000000000        0x0 build/sa1/asm/ia_039.o
 .ARM.attributes
                0x0000000000000000       0x20 build/sa1/asm/ia_039.o
 .data          0x0000000000000000        0x0 build/sa1/asm/game_2.o
 .bss           0x0000000000000000        0x0 build/sa1/asm/game_2.o
 .ARM.attributes
                0x0000000000000000       0x20 build/sa1/asm/game_2.o
 .data          0x0000000000000000        0x0 build/sa1/asm/enemy_gamigami.o
 .bss           0x0000000000000000        0x0 build/sa1/asm/enemy_gamigami.o
 .ARM.attributes
                0x0000000000000000       0x20 build/sa1/asm/enemy_gamigami.o
 .data          0x0000000000000000        0x0 build/sa1/asm/enemy_rhinotank.o
 .bss           0x0000000000000000        0x0 build/sa1/asm/enemy_rhinotank.o
 .ARM.attributes
                0x0000000000000000       0x20 build/sa1/asm/enemy_rhinotank.o
 .data          0x0000000000000000        0x0 build/sa1/asm/enemy_kerokero.o
 .bss           0x0000000000000000        0x0 build/sa1/asm/enemy_kerokero.o
 .ARM.attributes
                0x0000000000000000       0x20 build/sa1/asm/enemy_kerokero.o
 .data          0x0000000000000000        0x0 build/sa1/asm/enemy_hanabii.o
 .bss           0x0000000000000000        0x0 build/sa1/asm/enemy_hanabii.o
 .ARM.attributes
                0x0000000000000000       0x20 build/sa1/asm/enemy_hanabii.o
 .data          0x0000000000000000        0x0 build/sa1/asm/enemy_pierrot.o
 .bss           0x0000000000000000        0x0 build/sa1/asm/enemy_pierrot.o
 .ARM.attributes
                0x0000000000000000       0x20 build/sa1/asm/enemy_pierrot.o
 .data          0x0000000000000000        0x0 build/sa1/asm/enemy_slot.o
 .bss           0x0000000000000000        0x0 build/sa1/asm/enemy_slot.o
 .ARM.attributes
                0x0000000000000000       0x20 build/sa1/asm/enemy_slot.o
 .data          0x0000000000000000        0x0 build/sa1/asm/enemy_leon.o
 .bss           0x0000000000000000        0x0 build/sa1/asm/enemy_leon.o
 .ARM.attributes
                0x0000000000000000       0x20 build/sa1/asm/enemy_leon.o
 .data          0x0000000000000000        0x0 build/sa1/asm/enemy_wamu.o
 .bss           0x0000000000000000        0x0 build/sa1/asm/enemy_wamu.o
 .ARM.attributes
                0x0000000000000000       0x20 build/sa1/asm/enemy_wamu.o
 .data          0x0000000000000000        0x0 build/sa1/asm/enemy_mirror.o
 .bss           0x0000000000000000        0x0 build/sa1/asm/enemy_mirror.o
 .ARM.attributes
                0x0000000000000000       0x20 build/sa1/asm/enemy_mirror.o
 .data          0x0000000000000000        0x0 build/sa1/asm/enemy_oct.o
 .bss           0x0000000000000000        0x0 build/sa1/asm/enemy_oct.o
 .ARM.attributes
                0x0000000000000000       0x20 build/sa1/asm/enemy_oct.o
 .data          0x0000000000000000        0x0 build/sa1/asm/enemy_senbon.o
 .bss           0x0000000000000000        0x0 build/sa1/asm/enemy_senbon.o
 .ARM.attributes
                0x0000000000000000       0x20 build/sa1/asm/enemy_senbon.o
 .data          0x0000000000000000        0x0 build/sa1/asm/enemy_fireball.o
 .bss           0x0000000000000000        0x0 build/sa1/asm/enemy_fireball.o
 .ARM.attributes
                0x0000000000000000       0x20 build/sa1/asm/enemy_fireball.o
 .data          0x0000000000000000        0x0 build/sa1/asm/enemy_mole.o
 .bss           0x0000000000000000        0x0 build/sa1/asm/enemy_mole.o
 .ARM.attributes
                0x0000000000000000       0x20 build/sa1/asm/enemy_mole.o
 .data          0x0000000000000000        0x0 build/sa1/asm/enemy_yukimaru.o
 .bss           0x0000000000000000        0x0 build/sa1/asm/enemy_yukimaru.o
 .ARM.attributes
                0x0000000000000000       0x20 build/sa1/asm/enemy_yukimaru.o
 .data          0x0000000000000000        0x0 build/sa1/asm/enemy_drisame.o
 .bss           0x0000000000000000        0x0 build/sa1/asm/enemy_drisame.o
 .ARM.attributes
                0x0000000000000000       0x20 build/sa1/asm/enemy_drisame.o
 .data          0x0000000000000000        0x0 build/sa1/asm/enemy_kuraa.o
 .bss           0x0000000000000000        0x0 build/sa1/asm/enemy_kuraa.o
 .ARM.attributes
                0x0000000000000000       0x20 build/sa1/asm/enemy_kuraa.o
 .data          0x0000000000000000        0x0 build/sa1/asm/enemy_pen.o
 .bss           0x0000000000000000        0x0 build/sa1/asm/enemy_pen.o
 .ARM.attributes
                0x0000000000000000       0x20 build/sa1/asm/enemy_pen.o
 .data          0x0000000000000000        0x0 build/sa1/asm/enemy_tentou.o
 .bss           0x0000000000000000        0x0 build/sa1/asm/enemy_tentou.o
 .ARM.attributes
                0x0000000000000000       0x20 build/sa1/asm/enemy_tentou.o
 .data          0x0000000000000000        0x0 build/sa1/asm/ia_trampoline.o
 .bss           0x0000000000000000        0x0 build/sa1/asm/ia_trampoline.o
 .ARM.attributes
                0x0000000000000000       0x20 build/sa1/asm/ia_trampoline.o
 .data          0x0000000000000000        0x0 build/sa1/asm/ia_bounce_block.o
 .bss           0x0000000000000000        0x0 build/sa1/asm/ia_bounce_block.o
 .ARM.attributes
                0x0000000000000000       0x20 build/sa1/asm/ia_bounce_block.o
 .data          0x0000000000000000        0x0 build/sa1/asm/ia_incline_ramp.o
 .bss           0x0000000000000000        0x0 build/sa1/asm/ia_incline_ramp.o
 .ARM.attributes
                0x0000000000000000       0x20 build/sa1/asm/ia_incline_ramp.o
 .data          0x0000000000000000        0x0 build/sa1/asm/ia_waterfall.o
 .bss           0x0000000000000000        0x0 build/sa1/asm/ia_waterfall.o
 .ARM.attributes
                0x0000000000000000       0x20 build/sa1/asm/ia_waterfall.o
 .data          0x0000000000000000        0x0 build/sa1/asm/ia_shrubbery.o
 .bss           0x0000000000000000        0x0 build/sa1/asm/ia_shrubbery.o
 .ARM.attributes
                0x0000000000000000       0x20 build/sa1/asm/ia_shrubbery.o
 .data          0x0000000000000000        0x0 build/sa1/asm/ia_booster.o
 .bss           0x0000000000000000        0x0 build/sa1/asm/ia_booster.o
 .ARM.attributes
                0x0000000000000000       0x20 build/sa1/asm/ia_booster.o
 .data          0x0000000000000000        0x0 build/sa1/asm/ia_red_flag.o
 .bss           0x0000000000000000        0x0 build/sa1/asm/ia_red_flag.o
 .ARM.attributes
                0x0000000000000000       0x20 build/sa1/asm/ia_red_flag.o
 .data          0x0000000000000000        0x0 build/sa1/asm/ia_forced_ice_slide.o
 .bss           0x0000000000000000        0x0 build/sa1/asm/ia_forced_ice_slide.o
 .ARM.attributes
                0x0000000000000000       0x20 build/sa1/asm/ia_forced_ice_slide.o
 .data          0x0000000000000000        0x0 build/sa1/asm/ia_bumpers.o
 .bss           0x0000000000000000        0x0 build/sa1/asm/ia_bumpers.o
 .ARM.attributes
                0x0000000000000000       0x20 build/sa1/asm/ia_bumpers.o
 .data          0x0000000000000000        0x0 build/sa1/asm/ia_flipper.o
 .bss           0x0000000000000000        0x0 build/sa1/asm/ia_flipper.o
 .ARM.attributes
                0x0000000000000000       0x20 build/sa1/asm/ia_flipper.o
 .data          0x0000000000000000        0x0 build/sa1/asm/ia_platform_square.o
 .bss           0x0000000000000000        0x0 build/sa1/asm/ia_platform_square.o
 .ARM.attributes
                0x0000000000000000       0x20 build/sa1/asm/ia_platform_square.o
 .data          0x0000000000000000        0x0 build/sa1/asm/ia_SEGA_SONIC_letter.o
 .bss           0x0000000000000000        0x0 build/sa1/asm/ia_SEGA_SONIC_letter.o
 .ARM.attributes
                0x0000000000000000       0x20 build/sa1/asm/ia_SEGA_SONIC_letter.o
 .data          0x0000000000000000        0x0 build/sa1/asm/ia_party_balloon.o
 .bss           0x0000000000000000        0x0 build/sa1/asm/ia_party_balloon.o
 .ARM.attributes
                0x0000000000000000       0x20 build/sa1/asm/ia_party_balloon.o
 .data          0x0000000000000000        0x0 build/sa1/asm/ia_ship_swing.o
 .bss           0x0000000000000000        0x0 build/sa1/asm/ia_ship_swing.o
 .ARM.attributes
                0x0000000000000000       0x20 build/sa1/asm/ia_ship_swing.o
 .data          0x0000000000000000        0x0 build/sa1/asm/ia_platform_spiked.o
 .bss           0x0000000000000000        0x0 build/sa1/asm/ia_platform_spiked.o
 .ARM.attributes
                0x0000000000000000       0x20 build/sa1/asm/ia_platform_spiked.o
 .data          0x0000000000000000        0x0 build/sa1/asm/ia_bowl.o
 .bss           0x0000000000000000        0x0 build/sa1/asm/ia_bowl.o
 .ARM.attributes
                0x0000000000000000       0x20 build/sa1/asm/ia_bowl.o
 .data          0x0000000000000000        0x0 build/sa1/asm/ia_panel_gate.o
 .bss           0x0000000000000000        0x0 build/sa1/asm/ia_panel_gate.o
 .ARM.attributes
                0x0000000000000000       0x20 build/sa1/asm/ia_panel_gate.o
 .data          0x0000000000000000        0x0 build/sa1/asm/ia_marble_track.o
 .bss           0x0000000000000000        0x0 build/sa1/asm/ia_marble_track.o
 .ARM.attributes
                0x0000000000000000       0x20 build/sa1/asm/ia_marble_track.o
 .data          0x0000000000000000        0x0 build/sa1/asm/ia_conveyor_belt.o
 .bss           0x0000000000000000        0x0 build/sa1/asm/ia_conveyor_belt.o
 .ARM.attributes
                0x0000000000000000       0x20 build/sa1/asm/ia_conveyor_belt.o
 .data          0x0000000000000000        0x0 build/sa1/asm/ia_toggle_player_visibility.o
 .bss           0x0000000000000000        0x0 build/sa1/asm/ia_toggle_player_visibility.o
 .ARM.attributes
                0x0000000000000000       0x20 build/sa1/asm/ia_toggle_player_visibility.o
 .data          0x0000000000000000        0x0 build/sa1/asm/ia_wall_bumper.o
 .bss           0x0000000000000000        0x0 build/sa1/asm/ia_wall_bumper.o
 .ARM.attributes
                0x0000000000000000       0x20 build/sa1/asm/ia_wall_bumper.o
 .data          0x0000000000000000        0x0 build/sa1/asm/ia_teleport_orb.o
 .bss           0x0000000000000000        0x0 build/sa1/asm/ia_teleport_orb.o
 .ARM.attributes
                0x0000000000000000       0x20 build/sa1/asm/ia_teleport_orb.o
 .data          0x0000000000000000        0x0 build/sa1/asm/ia_flipper_small_blue.o
 .bss           0x0000000000000000        0x0 build/sa1/asm/ia_flipper_small_blue.o
 .ARM.attributes
                0x0000000000000000       0x20 build/sa1/asm/ia_flipper_small_blue.o
 .data          0x0000000000000000        0x0 build/sa1/asm/ia_carousel.o
 .bss           0x0000000000000000        0x0 build/sa1/asm/ia_carousel.o
 .ARM.attributes
                0x0000000000000000       0x20 build/sa1/asm/ia_carousel.o
 .data          0x0000000000000000        0x0 build/sa1/asm/ia_hook_rail.o
 .bss           0x0000000000000000        0x0 build/sa1/asm/ia_hook_rail.o
 .ARM.attributes
                0x0000000000000000       0x20 build/sa1/asm/ia_hook_rail.o
 .data          0x0000000000000000        0x0 build/sa1/asm/ia_swinging_hook.o
 .bss           0x0000000000000000        0x0 build/sa1/asm/ia_swinging_hook.o
 .ARM.attributes
                0x0000000000000000       0x20 build/sa1/asm/ia_swinging_hook.o
 .data          0x0000000000000000        0x0 build/sa1/asm/ia_security_gate.o
 .bss           0x0000000000000000        0x0 build/sa1/asm/ia_security_gate.o
 .ARM.attributes
                0x0000000000000000       0x20 build/sa1/asm/ia_security_gate.o
 .data          0x0000000000000000        0x0 build/sa1/asm/ia_swing_rope.o
 .bss           0x0000000000000000        0x0 build/sa1/asm/ia_swing_rope.o
 .ARM.attributes
                0x0000000000000000       0x20 build/sa1/asm/ia_swing_rope.o
 .data          0x0000000000000000        0x0 build/sa1/asm/ia_steam_exhaust.o
 .bss           0x0000000000000000        0x0 build/sa1/asm/ia_steam_exhaust.o
 .ARM.attributes
                0x0000000000000000       0x20 build/sa1/asm/ia_steam_exhaust.o
 .data          0x0000000000000000        0x0 build/sa1/asm/ia_crane_claw_lift.o
 .bss           0x0000000000000000        0x0 build/sa1/asm/ia_crane_claw_lift.o
 .ARM.attributes
                0x0000000000000000       0x20 build/sa1/asm/ia_crane_claw_lift.o
 .data          0x0000000000000000        0x0 build/sa1/asm/ia_moving_spring.o
 .bss           0x0000000000000000        0x0 build/sa1/asm/ia_moving_spring.o
 .ARM.attributes
                0x0000000000000000       0x20 build/sa1/asm/ia_moving_spring.o
 .data          0x0000000000000000        0x0 build/sa1/asm/ia_iron_ball.o
 .bss           0x0000000000000000        0x0 build/sa1/asm/ia_iron_ball.o
 .ARM.attributes
                0x0000000000000000       0x20 build/sa1/asm/ia_iron_ball.o
 .data          0x0000000000000000        0x0 build/sa1/asm/ia_hang_bar.o
 .bss           0x0000000000000000        0x0 build/sa1/asm/ia_hang_bar.o
 .ARM.attributes
                0x0000000000000000       0x20 build/sa1/asm/ia_hang_bar.o
 .data          0x0000000000000000        0x0 build/sa1/asm/ia_084.o
 .bss           0x0000000000000000        0x0 build/sa1/asm/ia_084.o
 .ARM.attributes
                0x0000000000000000       0x20 build/sa1/asm/ia_084.o
 .data          0x0000000000000000        0x0 build/sa1/asm/ia_085_089.o
 .bss           0x0000000000000000        0x0 build/sa1/asm/ia_085_089.o
 .ARM.attributes
                0x0000000000000000       0x20 build/sa1/asm/ia_085_089.o
 .data          0x0000000000000000        0x0 build/sa1/asm/ia_run_wheel.o
 .bss           0x0000000000000000        0x0 build/sa1/asm/ia_run_wheel.o
 .ARM.attributes
                0x0000000000000000       0x20 build/sa1/asm/ia_run_wheel.o
 .data          0x0000000000000000        0x0 build/sa1/asm/ia_torch.o
 .bss           0x0000000000000000        0x0 build/sa1/asm/ia_torch.o
 .ARM.attributes
                0x0000000000000000       0x20 build/sa1/asm/ia_torch.o
 .data          0x0000000000000000        0x0 build/sa1/asm/ia_toggle_player_float.o
 .bss           0x0000000000000000        0x0 build/sa1/asm/ia_toggle_player_float.o
 .ARM.attributes
                0x0000000000000000       0x20 build/sa1/asm/ia_toggle_player_float.o
 .data          0x0000000000000000        0x0 build/sa1/asm/ia_ferris_wheel.o
 .bss           0x0000000000000000        0x0 build/sa1/asm/ia_ferris_wheel.o
 .ARM.attributes
                0x0000000000000000       0x20 build/sa1/asm/ia_ferris_wheel.o
 .data          0x0000000000000000        0x0 build/sa1/asm/ia_boulder_spawner.o
 .bss           0x0000000000000000        0x0 build/sa1/asm/ia_boulder_spawner.o
 .ARM.attributes
                0x0000000000000000       0x20 build/sa1/asm/ia_boulder_spawner.o
 .data          0x0000000000000000        0x0 build/sa1/asm/ia_spiked_barrel.o
 .bss           0x0000000000000000        0x0 build/sa1/asm/ia_spiked_barrel.o
 .ARM.attributes
                0x0000000000000000       0x20 build/sa1/asm/ia_spiked_barrel.o
 .data          0x0000000000000000        0x0 build/sa1/asm/ia_air_bubbles.o
 .bss           0x0000000000000000        0x0 build/sa1/asm/ia_air_bubbles.o
 .ARM.attributes
                0x0000000000000000       0x20 build/sa1/asm/ia_air_bubbles.o
 .data          0x0000000000000000        0x0 build/sa1/asm/ia_ice_block.o
 .bss           0x0000000000000000        0x0 build/sa1/asm/ia_ice_block.o
 .ARM.attributes
                0x0000000000000000       0x20 build/sa1/asm/ia_ice_block.o
 .data          0x0000000000000000        0x0 build/sa1/asm/ia_096.o
 .bss           0x0000000000000000        0x0 build/sa1/asm/ia_096.o
 .ARM.attributes
                0x0000000000000000       0x20 build/sa1/asm/ia_096.o
 .data          0x0000000000000000        0x0 build/sa1/asm/ia_097.o
 .bss           0x0000000000000000        0x0 build/sa1/asm/ia_097.o
 .ARM.attributes
                0x0000000000000000       0x20 build/sa1/asm/ia_097.o
 .data          0x0000000000000000        0x0 build/sa1/asm/ia_underwater_lava_platform.o
 .bss           0x0000000000000000        0x0 build/sa1/asm/ia_underwater_lava_platform.o
 .ARM.attributes
                0x0000000000000000       0x20 build/sa1/asm/ia_underwater_lava_platform.o
 .data          0x0000000000000000        0x0 build/sa1/asm/ia_099.o
 .bss           0x0000000000000000        0x0 build/sa1/asm/ia_099.o
 .ARM.attributes
                0x0000000000000000       0x20 build/sa1/asm/ia_099.o
 .data          0x0000000000000000        0x0 build/sa1/asm/ia_special_spring.o
 .bss           0x0000000000000000        0x0 build/sa1/asm/ia_special_spring.o
 .ARM.attributes
                0x0000000000000000       0x20 build/sa1/asm/ia_special_spring.o
 .data          0x0000000000000000        0x0 build/sa1/asm/ia_spiked_barrel_chaohunt.o
 .bss           0x0000000000000000        0x0 build/sa1/asm/ia_spiked_barrel_chaohunt.o
 .ARM.attributes
                0x0000000000000000       0x20 build/sa1/asm/ia_spiked_barrel_chaohunt.o
 .data          0x0000000000000000        0x0 build/sa1/asm/ia_small_fall_block.o
 .bss           0x0000000000000000        0x0 build/sa1/asm/ia_small_fall_block.o
 .ARM.attributes
                0x0000000000000000       0x20 build/sa1/asm/ia_small_fall_block.o
 .data          0x0000000000000000        0x0 build/sa1/asm/ia_lava.o
 .bss           0x0000000000000000        0x0 build/sa1/asm/ia_lava.o
 .ARM.attributes
                0x0000000000000000       0x20 build/sa1/asm/ia_lava.o
 .data          0x0000000000000000        0x0 build/sa1/asm/ia_track.o
 .bss           0x0000000000000000        0x0 build/sa1/asm/ia_track.o
 .ARM.attributes
                0x0000000000000000       0x20 build/sa1/asm/ia_track.o
 .data          0x0000000000000000        0x0 build/sa1/asm/ia_107.o
 .bss           0x0000000000000000        0x0 build/sa1/asm/ia_107.o
 .ARM.attributes
                0x0000000000000000       0x20 build/sa1/asm/ia_107.o
 .data          0x0000000000000000        0x0 build/sa1/asm/ia_spring_hiding.o
 .bss           0x0000000000000000        0x0 build/sa1/asm/ia_spring_hiding.o
 .ARM.attributes
                0x0000000000000000       0x20 build/sa1/asm/ia_spring_hiding.o
 .data          0x0000000000000000        0x0 build/sa1/asm/ia_109.o
 .bss           0x0000000000000000        0x0 build/sa1/asm/ia_109.o
 .ARM.attributes
                0x0000000000000000       0x20 build/sa1/asm/ia_109.o
 .data          0x0000000000000000        0x0 build/sa1/asm/ia_pipe.o
 .bss           0x0000000000000000        0x0 build/sa1/asm/ia_pipe.o
 .ARM.attributes
                0x0000000000000000       0x20 build/sa1/asm/ia_pipe.o
 .data          0x0000000000000000        0x0 build/sa1/asm/ia_track_air_corner.o
 .bss           0x0000000000000000        0x0 build/sa1/asm/ia_track_air_corner.o
 .ARM.attributes
                0x0000000000000000       0x20 build/sa1/asm/ia_track_air_corner.o
 .data          0x0000000000000000        0x0 build/sa1/asm/ia_113.o
 .bss           0x0000000000000000        0x0 build/sa1/asm/ia_113.o
 .ARM.attributes
                0x0000000000000000       0x20 build/sa1/asm/ia_113.o
 .data          0x0000000000000000        0x0 build/sa1/asm/m4a0.o
 .bss           0x0000000000000000        0x0 build/sa1/asm/m4a0.o
 .ARM.attributes
                0x0000000000000000       0x20 build/sa1/asm/m4a0.o
 .data          0x0000000000000000        0x0 build/sa1/src/lib/m4a/m4a.o
 .bss           0x0000000000000000        0x0 build/sa1/src/lib/m4a/m4a.o
 .ARM.attributes
                0x0000000000000000       0x20 build/sa1/src/lib/m4a/m4a.o
 .ARM.attributes
                0x0000000000000000       0x20 build/sa1/src/lib/agb_flash/agb_flash.o
 COMMON         0x0000000000000000        0x0 build/sa1/src/lib/agb_flash/agb_flash.o
 .data          0x0000000000000000        0x0 build/sa1/src/lib/agb_flash/agb_flash_le_512k.o
 .bss           0x0000000000000000        0x0 build/sa1/src/lib/agb_flash/agb_flash_le_512k.o
 .ARM.attributes
                0x0000000000000000       0x20 build/sa1/src/lib/agb_flash/agb_flash_le_512k.o
 .data          0x0000000000000000        0x0 build/sa1/src/lib/agb_flash/agb_flash_mx_512k.o
 .bss           0x0000000000000000        0x0 build/sa1/src/lib/agb_flash/agb_flash_mx_512k.o
 .ARM.attributes
                0x0000000000000000       0x20 build/sa1/src/lib/agb_flash/agb_flash_mx_512k.o
 .data          0x0000000000000000        0x0 build/sa1/src/lib/agb_flash/agb_flash_at_512k.o
 .bss           0x0000000000000000        0x0 build/sa1/src/lib/agb_flash/agb_flash_at_512k.o
 .ARM.attributes
                0x0000000000000000       0x20 build/sa1/src/lib/agb_flash/agb_flash_at_512k.o
 .data          0x0000000000000000        0x0 build/sa1/asm/libagbsyscall.o
 .bss           0x0000000000000000        0x0 build/sa1/asm/libagbsyscall.o
 .ARM.attributes
                0x0000000000000000       0x20 build/sa1/asm/libagbsyscall.o
 .text          0x0000000000000000        0x0 build/sa1/data/data_0.o
 .data          0x0000000000000000        0x0 build/sa1/data/data_0.o
 .bss           0x0000000000000000        0x0 build/sa1/data/data_0.o
 .ARM.attributes
                0x0000000000000000       0x20 build/sa1/data/data_0.o
 .text          0x0000000000000000        0x0 build/sa1/data/chao_garden.o
 .data          0x0000000000000000        0x0 build/sa1/data/chao_garden.o
 .bss           0x0000000000000000        0x0 build/sa1/data/chao_garden.o
 .ARM.attributes
                0x0000000000000000       0x20 build/sa1/data/chao_garden.o
 .text          0x0000000000000000        0x0 build/sa1/src/data/entity_tables.o
 .data          0x0000000000000000        0x0 build/sa1/src/data/entity_tables.o
 .bss           0x0000000000000000        0x0 build/sa1/src/data/entity_tables.o
 .ARM.attributes
                0x0000000000000000       0x20 build/sa1/src/data/entity_tables.o
 .text          0x0000000000000000        0x0 build/sa1/data/data_0_1.o
 .data          0x0000000000000000        0x0 build/sa1/data/data_0_1.o
 .bss           0x0000000000000000        0x0 build/sa1/data/data_0_1.o
 .ARM.attributes
                0x0000000000000000       0x20 build/sa1/data/data_0_1.o
 .text          0x0000000000000000        0x0 build/sa1/src/data/tilemap_data_0.o
 .data          0x0000000000000000        0x0 build/sa1/src/data/tilemap_data_0.o
 .bss           0x0000000000000000        0x0 build/sa1/src/data/tilemap_data_0.o
 .ARM.attributes
                0x0000000000000000       0x20 build/sa1/src/data/tilemap_data_0.o
 .text          0x0000000000000000        0x0 build/sa1/data/gSpriteTables.o
 .data          0x0000000000000000        0x0 build/sa1/data/gSpriteTables.o
 .bss           0x0000000000000000        0x0 build/sa1/data/gSpriteTables.o
 .ARM.attributes
                0x0000000000000000       0x20 build/sa1/data/gSpriteTables.o
 .text          0x0000000000000000        0x0 build/sa1/data/animations.o
 .data          0x0000000000000000        0x0 build/sa1/data/animations.o
 .bss           0x0000000000000000        0x0 build/sa1/data/animations.o
 .ARM.attributes
                0x0000000000000000       0x20 build/sa1/data/animations.o
 .text          0x0000000000000000        0x0 build/sa1/src/data/sprite_dimensions.o
 .data          0x0000000000000000        0x0 build/sa1/src/data/sprite_dimensions.o
 .bss           0x0000000000000000        0x0 build/sa1/src/data/sprite_dimensions.o
 .ARM.attributes
                0x0000000000000000       0x20 build/sa1/src/data/sprite_dimensions.o
 .text          0x0000000000000000        0x0 build/sa1/src/data/oam_data.o
 .data          0x0000000000000000        0x0 build/sa1/src/data/oam_data.o
 .bss           0x0000000000000000        0x0 build/sa1/src/data/oam_data.o
 .ARM.attributes
                0x0000000000000000       0x20 build/sa1/src/data/oam_data.o
 .text          0x0000000000000000        0x0 build/sa1/src/data/obj_palettes.o
 .data          0x0000000000000000        0x0 build/sa1/src/data/obj_palettes.o
 .bss           0x0000000000000000        0x0 build/sa1/src/data/obj_palettes.o
 .ARM.attributes
                0x0000000000000000       0x20 build/sa1/src/data/obj_palettes.o
 .text          0x0000000000000000        0x0 build/sa1/data/obj_gfx.o
 .data          0x0000000000000000        0x0 build/sa1/data/obj_gfx.o
 .bss           0x0000000000000000        0x0 build/sa1/data/obj_gfx.o
 .ARM.attributes
                0x0000000000000000       0x20 build/sa1/data/obj_gfx.o
 .text          0x0000000000000000        0x0 build/sa1/data/data_0_2.o
 .data          0x0000000000000000        0x0 build/sa1/data/data_0_2.o
 .bss           0x0000000000000000        0x0 build/sa1/data/data_0_2.o
 .ARM.attributes
                0x0000000000000000       0x20 build/sa1/data/data_0_2.o
 .text          0x0000000000000000        0x0 build/sa1/src/data/tilemaps_special_stage.o
 .bss           0x0000000000000000        0x0 build/sa1/src/data/tilemaps_special_stage.o
 .ARM.attributes
                0x0000000000000000       0x20 build/sa1/src/data/tilemaps_special_stage.o
 .text          0x0000000000000000        0x0 build/sa1/data/data_0_3.o
 .data          0x0000000000000000        0x0 build/sa1/data/data_0_3.o
 .bss           0x0000000000000000        0x0 build/sa1/data/data_0_3.o
 .ARM.attributes
                0x0000000000000000       0x20 build/sa1/data/data_0_3.o
 .text          0x0000000000000000        0x0 build/sa1/src/data/tilemap_data_2.o
 .data          0x0000000000000000        0x0 build/sa1/src/data/tilemap_data_2.o
 .bss           0x0000000000000000        0x0 build/sa1/src/data/tilemap_data_2.o
 .ARM.attributes
                0x0000000000000000       0x20 build/sa1/src/data/tilemap_data_2.o
 .text          0x0000000000000000        0x0 build/sa1/data/data_0_3_2.o
 .data          0x0000000000000000        0x0 build/sa1/data/data_0_3_2.o
 .bss           0x0000000000000000        0x0 build/sa1/data/data_0_3_2.o
 .ARM.attributes
                0x0000000000000000       0x20 build/sa1/data/data_0_3_2.o
 .text          0x0000000000000000        0x0 build/sa1/src/data/tilemap_table.o
 .data          0x0000000000000000        0x0 build/sa1/src/data/tilemap_table.o
 .bss           0x0000000000000000        0x0 build/sa1/src/data/tilemap_table.o
 .ARM.attributes
                0x0000000000000000       0x20 build/sa1/src/data/tilemap_table.o
 .text          0x0000000000000000        0x0 build/sa1/data/data_0_4.o
 .data          0x0000000000000000        0x0 build/sa1/data/data_0_4.o
 .bss           0x0000000000000000        0x0 build/sa1/data/data_0_4.o
 .ARM.attributes
                0x0000000000000000       0x20 build/sa1/data/data_0_4.o
 .text          0x0000000000000000        0x0 build/sa1/src/data/tilemap_data_3.o
 .data          0x0000000000000000        0x0 build/sa1/src/data/tilemap_data_3.o
 .bss           0x0000000000000000        0x0 build/sa1/src/data/tilemap_data_3.o
 .ARM.attributes
                0x0000000000000000       0x20 build/sa1/src/data/tilemap_data_3.o
 .text          0x0000000000000000        0x0 build/sa1/data/data_0_5.o
 .data          0x0000000000000000        0x0 build/sa1/data/data_0_5.o
 .bss           0x0000000000000000        0x0 build/sa1/data/data_0_5.o
 .ARM.attributes
                0x0000000000000000       0x20 build/sa1/data/data_0_5.o
 .text          0x0000000000000000        0x0 build/sa1/src/data/entities.o
 .data          0x0000000000000000        0x0 build/sa1/src/data/entities.o
 .bss           0x0000000000000000        0x0 build/sa1/src/data/entities.o
 .ARM.attributes
                0x0000000000000000       0x20 build/sa1/src/data/entities.o
 .text          0x0000000000000000        0x0 build/sa1/src/lib/m4a/m4a_tables.o
 .data          0x0000000000000000        0x0 build/sa1/src/lib/m4a/m4a_tables.o
 .bss           0x0000000000000000        0x0 build/sa1/src/lib/m4a/m4a_tables.o
 .ARM.attributes
                0x0000000000000000       0x20 build/sa1/src/lib/m4a/m4a_tables.o
 .text          0x0000000000000000        0x0 build/sa1/data/sound_data.o
 .data          0x0000000000000000        0x0 build/sa1/data/sound_data.o
 .bss           0x0000000000000000        0x0 build/sa1/data/sound_data.o
 .ARM.attributes
                0x0000000000000000       0x20 build/sa1/data/sound_data.o
 .text          0x0000000000000000        0x0 build/sa1/sound/songs/song001.o
 .data          0x0000000000000000        0x0 build/sa1/sound/songs/song001.o
 .bss           0x0000000000000000        0x0 build/sa1/sound/songs/song001.o
 .ARM.attributes
                0x0000000000000000       0x20 build/sa1/sound/songs/song001.o
 .text          0x0000000000000000        0x0 build/sa1/sound/songs/song002.o
 .data          0x0000000000000000        0x0 build/sa1/sound/songs/song002.o
 .bss           0x0000000000000000        0x0 build/sa1/sound/songs/song002.o
 .ARM.attributes
                0x0000000000000000       0x20 build/sa1/sound/songs/song002.o
 .text          0x0000000000000000        0x0 build/sa1/sound/songs/song003.o
 .data          0x0000000000000000        0x0 build/sa1/sound/songs/song003.o
 .bss           0x0000000000000000        0x0 build/sa1/sound/songs/song003.o
 .ARM.attributes
                0x0000000000000000       0x20 build/sa1/sound/songs/song003.o
 .text          0x0000000000000000        0x0 build/sa1/sound/songs/song004.o
 .data          0x0000000000000000        0x0 build/sa1/sound/songs/song004.o
 .bss           0x0000000000000000        0x0 build/sa1/sound/songs/song004.o
 .ARM.attributes
                0x0000000000000000       0x20 build/sa1/sound/songs/song004.o
 .text          0x0000000000000000        0x0 build/sa1/sound/songs/song005.o
 .data          0x0000000000000000        0x0 build/sa1/sound/songs/song005.o
 .bss           0x0000000000000000        0x0 build/sa1/sound/songs/song005.o
 .ARM.attributes
                0x0000000000000000       0x20 build/sa1/sound/songs/song005.o
 .text          0x0000000000000000        0x0 build/sa1/sound/songs/song006.o
 .data          0x0000000000000000        0x0 build/sa1/sound/songs/song006.o
 .bss           0x0000000000000000        0x0 build/sa1/sound/songs/song006.o
 .ARM.attributes
                0x0000000000000000       0x20 build/sa1/sound/songs/song006.o
 .text          0x0000000000000000        0x0 build/sa1/sound/songs/song007.o
 .data          0x0000000000000000        0x0 build/sa1/sound/songs/song007.o
 .bss           0x0000000000000000        0x0 build/sa1/sound/songs/song007.o
 .ARM.attributes
                0x0000000000000000       0x20 build/sa1/sound/songs/song007.o
 .text          0x0000000000000000        0x0 build/sa1/sound/songs/song008.o
 .data          0x0000000000000000        0x0 build/sa1/sound/songs/song008.o
 .bss           0x0000000000000000        0x0 build/sa1/sound/songs/song008.o
 .ARM.attributes
                0x0000000000000000       0x20 build/sa1/sound/songs/song008.o
 .text          0x0000000000000000        0x0 build/sa1/sound/songs/song009.o
 .data          0x0000000000000000        0x0 build/sa1/sound/songs/song009.o
 .bss           0x0000000000000000        0x0 build/sa1/sound/songs/song009.o
 .ARM.attributes
                0x0000000000000000       0x20 build/sa1/sound/songs/song009.o
 .text          0x0000000000000000        0x0 build/sa1/sound/songs/song010.o
 .data          0x0000000000000000        0x0 build/sa1/sound/songs/song010.o
 .bss           0x0000000000000000        0x0 build/sa1/sound/songs/song010.o
 .ARM.attributes
                0x0000000000000000       0x20 build/sa1/sound/songs/song010.o
 .text          0x0000000000000000        0x0 build/sa1/sound/songs/song011.o
 .data          0x0000000000000000        0x0 build/sa1/sound/songs/song011.o
 .bss           0x0000000000000000        0x0 build/sa1/sound/songs/song011.o
 .ARM.attributes
                0x0000000000000000       0x20 build/sa1/sound/songs/song011.o
 .text          0x0000000000000000        0x0 build/sa1/sound/songs/song012.o
 .data          0x0000000000000000        0x0 build/sa1/sound/songs/song012.o
 .bss           0x0000000000000000        0x0 build/sa1/sound/songs/song012.o
 .ARM.attributes
                0x0000000000000000       0x20 build/sa1/sound/songs/song012.o
 .text          0x0000000000000000        0x0 build/sa1/sound/songs/song013.o
 .data          0x0000000000000000        0x0 build/sa1/sound/songs/song013.o
 .bss           0x0000000000000000        0x0 build/sa1/sound/songs/song013.o
 .ARM.attributes
                0x0000000000000000       0x20 build/sa1/sound/songs/song013.o
 .text          0x0000000000000000        0x0 build/sa1/sound/songs/song014.o
 .data          0x0000000000000000        0x0 build/sa1/sound/songs/song014.o
 .bss           0x0000000000000000        0x0 build/sa1/sound/songs/song014.o
 .ARM.attributes
                0x0000000000000000       0x20 build/sa1/sound/songs/song014.o
 .text          0x0000000000000000        0x0 build/sa1/sound/songs/song015.o
 .data          0x0000000000000000        0x0 build/sa1/sound/songs/song015.o
 .bss           0x0000000000000000        0x0 build/sa1/sound/songs/song015.o
 .ARM.attributes
                0x0000000000000000       0x20 build/sa1/sound/songs/song015.o
 .text          0x0000000000000000        0x0 build/sa1/sound/songs/song016.o
 .data          0x0000000000000000        0x0 build/sa1/sound/songs/song016.o
 .bss           0x0000000000000000        0x0 build/sa1/sound/songs/song016.o
 .ARM.attributes
                0x0000000000000000       0x20 build/sa1/sound/songs/song016.o
 .text          0x0000000000000000        0x0 build/sa1/sound/songs/song017.o
 .data          0x0000000000000000        0x0 build/sa1/sound/songs/song017.o
 .bss           0x0000000000000000        0x0 build/sa1/sound/songs/song017.o
 .ARM.attributes
                0x0000000000000000       0x20 build/sa1/sound/songs/song017.o
 .text          0x0000000000000000        0x0 build/sa1/sound/songs/song018.o
 .data          0x0000000000000000        0x0 build/sa1/sound/songs/song018.o
 .bss           0x0000000000000000        0x0 build/sa1/sound/songs/song018.o
 .ARM.attributes
                0x0000000000000000       0x20 build/sa1/sound/songs/song018.o
 .text          0x0000000000000000        0x0 build/sa1/sound/songs/song019.o
 .data          0x0000000000000000        0x0 build/sa1/sound/songs/song019.o
 .bss           0x0000000000000000        0x0 build/sa1/sound/songs/song019.o
 .ARM.attributes
                0x0000000000000000       0x20 build/sa1/sound/songs/song019.o
 .text          0x0000000000000000        0x0 build/sa1/sound/songs/song020.o
 .data          0x0000000000000000        0x0 build/sa1/sound/songs/song020.o
 .bss           0x0000000000000000        0x0 build/sa1/sound/songs/song020.o
 .ARM.attributes
                0x0000000000000000       0x20 build/sa1/sound/songs/song020.o
 .text          0x0000000000000000        0x0 build/sa1/sound/songs/song021.o
 .data          0x0000000000000000        0x0 build/sa1/sound/songs/song021.o
 .bss           0x0000000000000000        0x0 build/sa1/sound/songs/song021.o
 .ARM.attributes
                0x0000000000000000       0x20 build/sa1/sound/songs/song021.o
 .text          0x0000000000000000        0x0 build/sa1/sound/songs/song022.o
 .data          0x0000000000000000        0x0 build/sa1/sound/songs/song022.o
 .bss           0x0000000000000000        0x0 build/sa1/sound/songs/song022.o
 .ARM.attributes
                0x0000000000000000       0x20 build/sa1/sound/songs/song022.o
 .text          0x0000000000000000        0x0 build/sa1/sound/songs/song023.o
 .data          0x0000000000000000        0x0 build/sa1/sound/songs/song023.o
 .bss           0x0000000000000000        0x0 build/sa1/sound/songs/song023.o
 .ARM.attributes
                0x0000000000000000       0x20 build/sa1/sound/songs/song023.o
 .text          0x0000000000000000        0x0 build/sa1/sound/songs/song024.o
 .data          0x0000000000000000        0x0 build/sa1/sound/songs/song024.o
 .bss           0x0000000000000000        0x0 build/sa1/sound/songs/song024.o
 .ARM.attributes
                0x0000000000000000       0x20 build/sa1/sound/songs/song024.o
 .text          0x0000000000000000        0x0 build/sa1/sound/songs/song025.o
 .data          0x0000000000000000        0x0 build/sa1/sound/songs/song025.o
 .bss           0x0000000000000000        0x0 build/sa1/sound/songs/song025.o
 .ARM.attributes
                0x0000000000000000       0x20 build/sa1/sound/songs/song025.o
 .text          0x0000000000000000        0x0 build/sa1/sound/songs/song026.o
 .data          0x0000000000000000        0x0 build/sa1/sound/songs/song026.o
 .bss           0x0000000000000000        0x0 build/sa1/sound/songs/song026.o
 .ARM.attributes
                0x0000000000000000       0x20 build/sa1/sound/songs/song026.o
 .text          0x0000000000000000        0x0 build/sa1/sound/songs/song027.o
 .data          0x0000000000000000        0x0 build/sa1/sound/songs/song027.o
 .bss           0x0000000000000000        0x0 build/sa1/sound/songs/song027.o
 .ARM.attributes
                0x0000000000000000       0x20 build/sa1/sound/songs/song027.o
 .text          0x0000000000000000        0x0 build/sa1/sound/songs/song028.o
 .data          0x0000000000000000        0x0 build/sa1/sound/songs/song028.o
 .bss           0x0000000000000000        0x0 build/sa1/sound/songs/song028.o
 .ARM.attributes
                0x0000000000000000       0x20 build/sa1/sound/songs/song028.o
 .text          0x0000000000000000        0x0 build/sa1/sound/songs/song029.o
 .data          0x0000000000000000        0x0 build/sa1/sound/songs/song029.o
 .bss           0x0000000000000000        0x0 build/sa1/sound/songs/song029.o
 .ARM.attributes
                0x0000000000000000       0x20 build/sa1/sound/songs/song029.o
 .text          0x0000000000000000        0x0 build/sa1/sound/songs/song030.o
 .data          0x0000000000000000        0x0 build/sa1/sound/songs/song030.o
 .bss           0x0000000000000000        0x0 build/sa1/sound/songs/song030.o
 .ARM.attributes
                0x0000000000000000       0x20 build/sa1/sound/songs/song030.o
 .text          0x0000000000000000        0x0 build/sa1/sound/songs/song031.o
 .data          0x0000000000000000        0x0 build/sa1/sound/songs/song031.o
 .bss           0x0000000000000000        0x0 build/sa1/sound/songs/song031.o
 .ARM.attributes
                0x0000000000000000       0x20 build/sa1/sound/songs/song031.o
 .text          0x0000000000000000        0x0 build/sa1/sound/songs/song032.o
 .data          0x0000000000000000        0x0 build/sa1/sound/songs/song032.o
 .bss           0x0000000000000000        0x0 build/sa1/sound/songs/song032.o
 .ARM.attributes
                0x0000000000000000       0x20 build/sa1/sound/songs/song032.o
 .text          0x0000000000000000        0x0 build/sa1/sound/songs/song033.o
 .data          0x0000000000000000        0x0 build/sa1/sound/songs/song033.o
 .bss           0x0000000000000000        0x0 build/sa1/sound/songs/song033.o
 .ARM.attributes
                0x0000000000000000       0x20 build/sa1/sound/songs/song033.o
 .text          0x0000000000000000        0x0 build/sa1/sound/songs/song034.o
 .data          0x0000000000000000        0x0 build/sa1/sound/songs/song034.o
 .bss           0x0000000000000000        0x0 build/sa1/sound/songs/song034.o
 .ARM.attributes
                0x0000000000000000       0x20 build/sa1/sound/songs/song034.o
 .text          0x0000000000000000        0x0 build/sa1/sound/songs/song035.o
 .data          0x0000000000000000        0x0 build/sa1/sound/songs/song035.o
 .bss           0x0000000000000000        0x0 build/sa1/sound/songs/song035.o
 .ARM.attributes
                0x0000000000000000       0x20 build/sa1/sound/songs/song035.o
 .text          0x0000000000000000        0x0 build/sa1/sound/songs/song036.o
 .data          0x0000000000000000        0x0 build/sa1/sound/songs/song036.o
 .bss           0x0000000000000000        0x0 build/sa1/sound/songs/song036.o
 .ARM.attributes
                0x0000000000000000       0x20 build/sa1/sound/songs/song036.o
 .text          0x0000000000000000        0x0 build/sa1/sound/songs/song037.o
 .data          0x0000000000000000        0x0 build/sa1/sound/songs/song037.o
 .bss           0x0000000000000000        0x0 build/sa1/sound/songs/song037.o
 .ARM.attributes
                0x0000000000000000       0x20 build/sa1/sound/songs/song037.o
 .text          0x0000000000000000        0x0 build/sa1/sound/songs/song038.o
 .data          0x0000000000000000        0x0 build/sa1/sound/songs/song038.o
 .bss           0x0000000000000000        0x0 build/sa1/sound/songs/song038.o
 .ARM.attributes
                0x0000000000000000       0x20 build/sa1/sound/songs/song038.o
 .text          0x0000000000000000        0x0 build/sa1/sound/songs/song039.o
 .data          0x0000000000000000        0x0 build/sa1/sound/songs/song039.o
 .bss           0x0000000000000000        0x0 build/sa1/sound/songs/song039.o
 .ARM.attributes
                0x0000000000000000       0x20 build/sa1/sound/songs/song039.o
 .text          0x0000000000000000        0x0 build/sa1/sound/songs/song040.o
 .data          0x0000000000000000        0x0 build/sa1/sound/songs/song040.o
 .bss           0x0000000000000000        0x0 build/sa1/sound/songs/song040.o
 .ARM.attributes
                0x0000000000000000       0x20 build/sa1/sound/songs/song040.o
 .text          0x0000000000000000        0x0 build/sa1/sound/songs/song041.o
 .data          0x0000000000000000        0x0 build/sa1/sound/songs/song041.o
 .bss           0x0000000000000000        0x0 build/sa1/sound/songs/song041.o
 .ARM.attributes
                0x0000000000000000       0x20 build/sa1/sound/songs/song041.o
 .text          0x0000000000000000        0x0 build/sa1/sound/songs/song042.o
 .data          0x0000000000000000        0x0 build/sa1/sound/songs/song042.o
 .bss           0x0000000000000000        0x0 build/sa1/sound/songs/song042.o
 .ARM.attributes
                0x0000000000000000       0x20 build/sa1/sound/songs/song042.o
 .text          0x0000000000000000        0x0 build/sa1/sound/songs/song043.o
 .data          0x0000000000000000        0x0 build/sa1/sound/songs/song043.o
 .bss           0x0000000000000000        0x0 build/sa1/sound/songs/song043.o
 .ARM.attributes
                0x0000000000000000       0x20 build/sa1/sound/songs/song043.o
 .text          0x0000000000000000        0x0 build/sa1/sound/songs/song044.o
 .data          0x0000000000000000        0x0 build/sa1/sound/songs/song044.o
 .bss           0x0000000000000000        0x0 build/sa1/sound/songs/song044.o
 .ARM.attributes
                0x0000000000000000       0x20 build/sa1/sound/songs/song044.o
 .text          0x0000000000000000        0x0 build/sa1/sound/songs/song045.o
 .data          0x0000000000000000        0x0 build/sa1/sound/songs/song045.o
 .bss           0x0000000000000000        0x0 build/sa1/sound/songs/song045.o
 .ARM.attributes
                0x0000000000000000       0x20 build/sa1/sound/songs/song045.o
 .text          0x0000000000000000        0x0 build/sa1/sound/songs/song046.o
 .data          0x0000000000000000        0x0 build/sa1/sound/songs/song046.o
 .bss           0x0000000000000000        0x0 build/sa1/sound/songs/song046.o
 .ARM.attributes
                0x0000000000000000       0x20 build/sa1/sound/songs/song046.o
 .text          0x0000000000000000        0x0 build/sa1/sound/songs/song047.o
 .data          0x0000000000000000        0x0 build/sa1/sound/songs/song047.o
 .bss           0x0000000000000000        0x0 build/sa1/sound/songs/song047.o
 .ARM.attributes
                0x0000000000000000       0x20 build/sa1/sound/songs/song047.o
 .text          0x0000000000000000        0x0 build/sa1/sound/songs/song048.o
 .data          0x0000000000000000        0x0 build/sa1/sound/songs/song048.o
 .bss           0x0000000000000000        0x0 build/sa1/sound/songs/song048.o
 .ARM.attributes
                0x0000000000000000       0x20 build/sa1/sound/songs/song048.o
 .text          0x0000000000000000        0x0 build/sa1/sound/songs/song049.o
 .data          0x0000000000000000        0x0 build/sa1/sound/songs/song049.o
 .bss           0x0000000000000000        0x0 build/sa1/sound/songs/song049.o
 .ARM.attributes
                0x0000000000000000       0x20 build/sa1/sound/songs/song049.o
 .text          0x0000000000000000        0x0 build/sa1/sound/songs/song050.o
 .data          0x0000000000000000        0x0 build/sa1/sound/songs/song050.o
 .bss           0x0000000000000000        0x0 build/sa1/sound/songs/song050.o
 .ARM.attributes
                0x0000000000000000       0x20 build/sa1/sound/songs/song050.o
 .text          0x0000000000000000        0x0 build/sa1/sound/songs/song051.o
 .data          0x0000000000000000        0x0 build/sa1/sound/songs/song051.o
 .bss           0x0000000000000000        0x0 build/sa1/sound/songs/song051.o
 .ARM.attributes
                0x0000000000000000       0x20 build/sa1/sound/songs/song051.o
 .text          0x0000000000000000        0x0 build/sa1/sound/songs/song052.o
 .data          0x0000000000000000        0x0 build/sa1/sound/songs/song052.o
 .bss           0x0000000000000000        0x0 build/sa1/sound/songs/song052.o
 .ARM.attributes
                0x0000000000000000       0x20 build/sa1/sound/songs/song052.o
 .text          0x0000000000000000        0x0 build/sa1/sound/songs/song053.o
 .data          0x0000000000000000        0x0 build/sa1/sound/songs/song053.o
 .bss           0x0000000000000000        0x0 build/sa1/sound/songs/song053.o
 .ARM.attributes
                0x0000000000000000       0x20 build/sa1/sound/songs/song053.o
 .text          0x0000000000000000        0x0 build/sa1/sound/songs/song054.o
 .data          0x0000000000000000        0x0 build/sa1/sound/songs/song054.o
 .bss           0x0000000000000000        0x0 build/sa1/sound/songs/song054.o
 .ARM.attributes
                0x0000000000000000       0x20 build/sa1/sound/songs/song054.o
 .text          0x0000000000000000        0x0 build/sa1/sound/songs/song102.o
 .data          0x0000000000000000        0x0 build/sa1/sound/songs/song102.o
 .bss           0x0000000000000000        0x0 build/sa1/sound/songs/song102.o
 .ARM.attributes
                0x0000000000000000       0x20 build/sa1/sound/songs/song102.o
 .text          0x0000000000000000        0x0 build/sa1/sound/songs/song103.o
 .data          0x0000000000000000        0x0 build/sa1/sound/songs/song103.o
 .bss           0x0000000000000000        0x0 build/sa1/sound/songs/song103.o
 .ARM.attributes
                0x0000000000000000       0x20 build/sa1/sound/songs/song103.o
 .text          0x0000000000000000        0x0 build/sa1/sound/songs/song104.o
 .data          0x0000000000000000        0x0 build/sa1/sound/songs/song104.o
 .bss           0x0000000000000000        0x0 build/sa1/sound/songs/song104.o
 .ARM.attributes
                0x0000000000000000       0x20 build/sa1/sound/songs/song104.o
 .text          0x0000000000000000        0x0 build/sa1/sound/songs/song105.o
 .data          0x0000000000000000        0x0 build/sa1/sound/songs/song105.o
 .bss           0x0000000000000000        0x0 build/sa1/sound/songs/song105.o
 .ARM.attributes
                0x0000000000000000       0x20 build/sa1/sound/songs/song105.o
 .text          0x0000000000000000        0x0 build/sa1/sound/songs/song106.o
 .data          0x0000000000000000        0x0 build/sa1/sound/songs/song106.o
 .bss           0x0000000000000000        0x0 build/sa1/sound/songs/song106.o
 .ARM.attributes
                0x0000000000000000       0x20 build/sa1/sound/songs/song106.o
 .text          0x0000000000000000        0x0 build/sa1/sound/songs/song107.o
 .data          0x0000000000000000        0x0 build/sa1/sound/songs/song107.o
 .bss           0x0000000000000000        0x0 build/sa1/sound/songs/song107.o
 .ARM.attributes
                0x0000000000000000       0x20 build/sa1/sound/songs/song107.o
 .text          0x0000000000000000        0x0 build/sa1/sound/songs/song108.o
 .data          0x0000000000000000        0x0 build/sa1/sound/songs/song108.o
 .bss           0x0000000000000000        0x0 build/sa1/sound/songs/song108.o
 .ARM.attributes
                0x0000000000000000       0x20 build/sa1/sound/songs/song108.o
 .text          0x0000000000000000        0x0 build/sa1/sound/songs/song109.o
 .data          0x0000000000000000        0x0 build/sa1/sound/songs/song109.o
 .bss           0x0000000000000000        0x0 build/sa1/sound/songs/song109.o
 .ARM.attributes
                0x0000000000000000       0x20 build/sa1/sound/songs/song109.o
 .text          0x0000000000000000        0x0 build/sa1/sound/songs/song110.o
 .data          0x0000000000000000        0x0 build/sa1/sound/songs/song110.o
 .bss           0x0000000000000000        0x0 build/sa1/sound/songs/song110.o
 .ARM.attributes
                0x0000000000000000       0x20 build/sa1/sound/songs/song110.o
 .text          0x0000000000000000        0x0 build/sa1/sound/songs/song111.o
 .data          0x0000000000000000        0x0 build/sa1/sound/songs/song111.o
 .bss           0x0000000000000000        0x0 build/sa1/sound/songs/song111.o
 .ARM.attributes
                0x0000000000000000       0x20 build/sa1/sound/songs/song111.o
 .text          0x0000000000000000        0x0 build/sa1/sound/songs/song112.o
 .data          0x0000000000000000        0x0 build/sa1/sound/songs/song112.o
 .bss           0x0000000000000000        0x0 build/sa1/sound/songs/song112.o
 .ARM.attributes
                0x0000000000000000       0x20 build/sa1/sound/songs/song112.o
 .text          0x0000000000000000        0x0 build/sa1/sound/songs/song113.o
 .data          0x0000000000000000        0x0 build/sa1/sound/songs/song113.o
 .bss           0x0000000000000000        0x0 build/sa1/sound/songs/song113.o
 .ARM.attributes
                0x0000000000000000       0x20 build/sa1/sound/songs/song113.o
 .text          0x0000000000000000        0x0 build/sa1/sound/songs/song114.o
 .data          0x0000000000000000        0x0 build/sa1/sound/songs/song114.o
 .bss           0x0000000000000000        0x0 build/sa1/sound/songs/song114.o
 .ARM.attributes
                0x0000000000000000       0x20 build/sa1/sound/songs/song114.o
 .text          0x0000000000000000        0x0 build/sa1/sound/songs/song115.o
 .data          0x0000000000000000        0x0 build/sa1/sound/songs/song115.o
 .bss           0x0000000000000000        0x0 build/sa1/sound/songs/song115.o
 .ARM.attributes
                0x0000000000000000       0x20 build/sa1/sound/songs/song115.o
 .text          0x0000000000000000        0x0 build/sa1/sound/songs/song116.o
 .data          0x0000000000000000        0x0 build/sa1/sound/songs/song116.o
 .bss           0x0000000000000000        0x0 build/sa1/sound/songs/song116.o
 .ARM.attributes
                0x0000000000000000       0x20 build/sa1/sound/songs/song116.o
 .text          0x0000000000000000        0x0 build/sa1/sound/songs/song117.o
 .data          0x0000000000000000        0x0 build/sa1/sound/songs/song117.o
 .bss           0x0000000000000000        0x0 build/sa1/sound/songs/song117.o
 .ARM.attributes
                0x0000000000000000       0x20 build/sa1/sound/songs/song117.o
 .text          0x0000000000000000        0x0 build/sa1/sound/songs/song118.o
 .data          0x0000000000000000        0x0 build/sa1/sound/songs/song118.o
 .bss           0x0000000000000000        0x0 build/sa1/sound/songs/song118.o
 .ARM.attributes
                0x0000000000000000       0x20 build/sa1/sound/songs/song118.o
 .text          0x0000000000000000        0x0 build/sa1/sound/songs/song119.o
 .data          0x0000000000000000        0x0 build/sa1/sound/songs/song119.o
 .bss           0x0000000000000000        0x0 build/sa1/sound/songs/song119.o
 .ARM.attributes
                0x0000000000000000       0x20 build/sa1/sound/songs/song119.o
 .text          0x0000000000000000        0x0 build/sa1/sound/songs/song120.o
 .data          0x0000000000000000        0x0 build/sa1/sound/songs/song120.o
 .bss           0x0000000000000000        0x0 build/sa1/sound/songs/song120.o
 .ARM.attributes
                0x0000000000000000       0x20 build/sa1/sound/songs/song120.o
 .text          0x0000000000000000        0x0 build/sa1/sound/songs/song121.o
 .data          0x0000000000000000        0x0 build/sa1/sound/songs/song121.o
 .bss           0x0000000000000000        0x0 build/sa1/sound/songs/song121.o
 .ARM.attributes
                0x0000000000000000       0x20 build/sa1/sound/songs/song121.o
 .text          0x0000000000000000        0x0 build/sa1/sound/songs/song122.o
 .data          0x0000000000000000        0x0 build/sa1/sound/songs/song122.o
 .bss           0x0000000000000000        0x0 build/sa1/sound/songs/song122.o
 .ARM.attributes
                0x0000000000000000       0x20 build/sa1/sound/songs/song122.o
 .text          0x0000000000000000        0x0 build/sa1/sound/songs/song123.o
 .data          0x0000000000000000        0x0 build/sa1/sound/songs/song123.o
 .bss           0x0000000000000000        0x0 build/sa1/sound/songs/song123.o
 .ARM.attributes
                0x0000000000000000       0x20 build/sa1/sound/songs/song123.o
 .text          0x0000000000000000        0x0 build/sa1/sound/songs/song124.o
 .data          0x0000000000000000        0x0 build/sa1/sound/songs/song124.o
 .bss           0x0000000000000000        0x0 build/sa1/sound/songs/song124.o
 .ARM.attributes
                0x0000000000000000       0x20 build/sa1/sound/songs/song124.o
 .text          0x0000000000000000        0x0 build/sa1/sound/songs/song125.o
 .data          0x0000000000000000        0x0 build/sa1/sound/songs/song125.o
 .bss           0x0000000000000000        0x0 build/sa1/sound/songs/song125.o
 .ARM.attributes
                0x0000000000000000       0x20 build/sa1/sound/songs/song125.o
 .text          0x0000000000000000        0x0 build/sa1/sound/songs/song126.o
 .data          0x0000000000000000        0x0 build/sa1/sound/songs/song126.o
 .bss           0x0000000000000000        0x0 build/sa1/sound/songs/song126.o
 .ARM.attributes
                0x0000000000000000       0x20 build/sa1/sound/songs/song126.o
 .text          0x0000000000000000        0x0 build/sa1/sound/songs/song127.o
 .data          0x0000000000000000        0x0 build/sa1/sound/songs/song127.o
 .bss           0x0000000000000000        0x0 build/sa1/sound/songs/song127.o
 .ARM.attributes
                0x0000000000000000       0x20 build/sa1/sound/songs/song127.o
 .text          0x0000000000000000        0x0 build/sa1/sound/songs/song128.o
 .data          0x0000000000000000        0x0 build/sa1/sound/songs/song128.o
 .bss           0x0000000000000000        0x0 build/sa1/sound/songs/song128.o
 .ARM.attributes
                0x0000000000000000       0x20 build/sa1/sound/songs/song128.o
 .text          0x0000000000000000        0x0 build/sa1/sound/songs/song129.o
 .data          0x0000000000000000        0x0 build/sa1/sound/songs/song129.o
 .bss           0x0000000000000000        0x0 build/sa1/sound/songs/song129.o
 .ARM.attributes
                0x0000000000000000       0x20 build/sa1/sound/songs/song129.o
 .text          0x0000000000000000        0x0 build/sa1/sound/songs/song130.o
 .data          0x0000000000000000        0x0 build/sa1/sound/songs/song130.o
 .bss           0x0000000000000000        0x0 build/sa1/sound/songs/song130.o
 .ARM.attributes
                0x0000000000000000       0x20 build/sa1/sound/songs/song130.o
 .text          0x0000000000000000        0x0 build/sa1/sound/songs/song131.o
 .data          0x0000000000000000        0x0 build/sa1/sound/songs/song131.o
 .bss           0x0000000000000000        0x0 build/sa1/sound/songs/song131.o
 .ARM.attributes
                0x0000000000000000       0x20 build/sa1/sound/songs/song131.o
 .text          0x0000000000000000        0x0 build/sa1/sound/songs/song132.o
 .data          0x0000000000000000        0x0 build/sa1/sound/songs/song132.o
 .bss           0x0000000000000000        0x0 build/sa1/sound/songs/song132.o
 .ARM.attributes
                0x0000000000000000       0x20 build/sa1/sound/songs/song132.o
 .text          0x0000000000000000        0x0 build/sa1/sound/songs/song133.o
 .data          0x0000000000000000        0x0 build/sa1/sound/songs/song133.o
 .bss           0x0000000000000000        0x0 build/sa1/sound/songs/song133.o
 .ARM.attributes
                0x0000000000000000       0x20 build/sa1/sound/songs/song133.o
 .text          0x0000000000000000        0x0 build/sa1/sound/songs/song134.o
 .data          0x0000000000000000        0x0 build/sa1/sound/songs/song134.o
 .bss           0x0000000000000000        0x0 build/sa1/sound/songs/song134.o
 .ARM.attributes
                0x0000000000000000       0x20 build/sa1/sound/songs/song134.o
 .text          0x0000000000000000        0x0 build/sa1/sound/songs/song135.o
 .data          0x0000000000000000        0x0 build/sa1/sound/songs/song135.o
 .bss           0x0000000000000000        0x0 build/sa1/sound/songs/song135.o
 .ARM.attributes
                0x0000000000000000       0x20 build/sa1/sound/songs/song135.o
 .text          0x0000000000000000        0x0 build/sa1/sound/songs/song136.o
 .data          0x0000000000000000        0x0 build/sa1/sound/songs/song136.o
 .bss           0x0000000000000000        0x0 build/sa1/sound/songs/song136.o
 .ARM.attributes
                0x0000000000000000       0x20 build/sa1/sound/songs/song136.o
 .text          0x0000000000000000        0x0 build/sa1/sound/songs/song137.o
 .data          0x0000000000000000        0x0 build/sa1/sound/songs/song137.o
 .bss           0x0000000000000000        0x0 build/sa1/sound/songs/song137.o
 .ARM.attributes
                0x0000000000000000       0x20 build/sa1/sound/songs/song137.o
 .text          0x0000000000000000        0x0 build/sa1/sound/songs/song138.o
 .data          0x0000000000000000        0x0 build/sa1/sound/songs/song138.o
 .bss           0x0000000000000000        0x0 build/sa1/sound/songs/song138.o
 .ARM.attributes
                0x0000000000000000       0x20 build/sa1/sound/songs/song138.o
 .text          0x0000000000000000        0x0 build/sa1/sound/songs/song139.o
 .data          0x0000000000000000        0x0 build/sa1/sound/songs/song139.o
 .bss           0x0000000000000000        0x0 build/sa1/sound/songs/song139.o
 .ARM.attributes
                0x0000000000000000       0x20 build/sa1/sound/songs/song139.o
 .text          0x0000000000000000        0x0 build/sa1/sound/songs/song140.o
 .data          0x0000000000000000        0x0 build/sa1/sound/songs/song140.o
 .bss           0x0000000000000000        0x0 build/sa1/sound/songs/song140.o
 .ARM.attributes
                0x0000000000000000       0x20 build/sa1/sound/songs/song140.o
 .text          0x0000000000000000        0x0 build/sa1/sound/songs/song141.o
 .data          0x0000000000000000        0x0 build/sa1/sound/songs/song141.o
 .bss           0x0000000000000000        0x0 build/sa1/sound/songs/song141.o
 .ARM.attributes
                0x0000000000000000       0x20 build/sa1/sound/songs/song141.o
 .text          0x0000000000000000        0x0 build/sa1/sound/songs/song142.o
 .data          0x0000000000000000        0x0 build/sa1/sound/songs/song142.o
 .bss           0x0000000000000000        0x0 build/sa1/sound/songs/song142.o
 .ARM.attributes
                0x0000000000000000       0x20 build/sa1/sound/songs/song142.o
 .text          0x0000000000000000        0x0 build/sa1/sound/songs/song143.o
 .data          0x0000000000000000        0x0 build/sa1/sound/songs/song143.o
 .bss           0x0000000000000000        0x0 build/sa1/sound/songs/song143.o
 .ARM.attributes
                0x0000000000000000       0x20 build/sa1/sound/songs/song143.o
 .text          0x0000000000000000        0x0 build/sa1/sound/songs/song144.o
 .data          0x0000000000000000        0x0 build/sa1/sound/songs/song144.o
 .bss           0x0000000000000000        0x0 build/sa1/sound/songs/song144.o
 .ARM.attributes
                0x0000000000000000       0x20 build/sa1/sound/songs/song144.o
 .text          0x0000000000000000        0x0 build/sa1/sound/songs/song145.o
 .data          0x0000000000000000        0x0 build/sa1/sound/songs/song145.o
 .bss           0x0000000000000000        0x0 build/sa1/sound/songs/song145.o
 .ARM.attributes
                0x0000000000000000       0x20 build/sa1/sound/songs/song145.o
 .text          0x0000000000000000        0x0 build/sa1/sound/songs/song146.o
 .data          0x0000000000000000        0x0 build/sa1/sound/songs/song146.o
 .bss           0x0000000000000000        0x0 build/sa1/sound/songs/song146.o
 .ARM.attributes
                0x0000000000000000       0x20 build/sa1/sound/songs/song146.o
 .text          0x0000000000000000        0x0 build/sa1/sound/songs/song147.o
 .data          0x0000000000000000        0x0 build/sa1/sound/songs/song147.o
 .bss           0x0000000000000000        0x0 build/sa1/sound/songs/song147.o
 .ARM.attributes
                0x0000000000000000       0x20 build/sa1/sound/songs/song147.o
 .text          0x0000000000000000        0x0 build/sa1/sound/songs/song148.o
 .data          0x0000000000000000        0x0 build/sa1/sound/songs/song148.o
 .bss           0x0000000000000000        0x0 build/sa1/sound/songs/song148.o
 .ARM.attributes
                0x0000000000000000       0x20 build/sa1/sound/songs/song148.o
 .text          0x0000000000000000        0x0 build/sa1/sound/songs/song149.o
 .data          0x0000000000000000        0x0 build/sa1/sound/songs/song149.o
 .bss           0x0000000000000000        0x0 build/sa1/sound/songs/song149.o
 .ARM.attributes
                0x0000000000000000       0x20 build/sa1/sound/songs/song149.o
 .text          0x0000000000000000        0x0 build/sa1/sound/songs/song150.o
 .data          0x0000000000000000        0x0 build/sa1/sound/songs/song150.o
 .bss           0x0000000000000000        0x0 build/sa1/sound/songs/song150.o
 .ARM.attributes
                0x0000000000000000       0x20 build/sa1/sound/songs/song150.o
 .text          0x0000000000000000        0x0 build/sa1/sound/songs/song151.o
 .data          0x0000000000000000        0x0 build/sa1/sound/songs/song151.o
 .bss           0x0000000000000000        0x0 build/sa1/sound/songs/song151.o
 .ARM.attributes
                0x0000000000000000       0x20 build/sa1/sound/songs/song151.o
 .text          0x0000000000000000        0x0 build/sa1/sound/songs/song152.o
 .data          0x0000000000000000        0x0 build/sa1/sound/songs/song152.o
 .bss           0x0000000000000000        0x0 build/sa1/sound/songs/song152.o
 .ARM.attributes
                0x0000000000000000       0x20 build/sa1/sound/songs/song152.o
 .text          0x0000000000000000        0x0 build/sa1/sound/songs/song153.o
 .data          0x0000000000000000        0x0 build/sa1/sound/songs/song153.o
 .bss           0x0000000000000000        0x0 build/sa1/sound/songs/song153.o
 .ARM.attributes
                0x0000000000000000       0x20 build/sa1/sound/songs/song153.o
 .text          0x0000000000000000        0x0 build/sa1/sound/songs/song154.o
 .data          0x0000000000000000        0x0 build/sa1/sound/songs/song154.o
 .bss           0x0000000000000000        0x0 build/sa1/sound/songs/song154.o
 .ARM.attributes
                0x0000000000000000       0x20 build/sa1/sound/songs/song154.o
 .text          0x0000000000000000        0x0 build/sa1/sound/songs/song155.o
 .data          0x0000000000000000        0x0 build/sa1/sound/songs/song155.o
 .bss           0x0000000000000000        0x0 build/sa1/sound/songs/song155.o
 .ARM.attributes
                0x0000000000000000       0x20 build/sa1/sound/songs/song155.o
 .text          0x0000000000000000        0x0 build/sa1/sound/songs/song156.o
 .data          0x0000000000000000        0x0 build/sa1/sound/songs/song156.o
 .bss           0x0000000000000000        0x0 build/sa1/sound/songs/song156.o
 .ARM.attributes
                0x0000000000000000       0x20 build/sa1/sound/songs/song156.o
 .text          0x0000000000000000        0x0 build/sa1/sound/songs/song157.o
 .data          0x0000000000000000        0x0 build/sa1/sound/songs/song157.o
 .bss           0x0000000000000000        0x0 build/sa1/sound/songs/song157.o
 .ARM.attributes
                0x0000000000000000       0x20 build/sa1/sound/songs/song157.o
 .text          0x0000000000000000        0x0 build/sa1/sound/songs/song158.o
 .data          0x0000000000000000        0x0 build/sa1/sound/songs/song158.o
 .bss           0x0000000000000000        0x0 build/sa1/sound/songs/song158.o
 .ARM.attributes
                0x0000000000000000       0x20 build/sa1/sound/songs/song158.o
 .text          0x0000000000000000        0x0 build/sa1/sound/songs/song159.o
 .data          0x0000000000000000        0x0 build/sa1/sound/songs/song159.o
 .bss           0x0000000000000000        0x0 build/sa1/sound/songs/song159.o
 .ARM.attributes
                0x0000000000000000       0x20 build/sa1/sound/songs/song159.o
 .text          0x0000000000000000        0x0 build/sa1/sound/songs/song160.o
 .data          0x0000000000000000        0x0 build/sa1/sound/songs/song160.o
 .bss           0x0000000000000000        0x0 build/sa1/sound/songs/song160.o
 .ARM.attributes
                0x0000000000000000       0x20 build/sa1/sound/songs/song160.o
 .text          0x0000000000000000        0x0 build/sa1/sound/songs/song161.o
 .data          0x0000000000000000        0x0 build/sa1/sound/songs/song161.o
 .bss           0x0000000000000000        0x0 build/sa1/sound/songs/song161.o
 .ARM.attributes
                0x0000000000000000       0x20 build/sa1/sound/songs/song161.o
 .text          0x0000000000000000        0x0 build/sa1/sound/songs/song162.o
 .data          0x0000000000000000        0x0 build/sa1/sound/songs/song162.o
 .bss           0x0000000000000000        0x0 build/sa1/sound/songs/song162.o
 .ARM.attributes
                0x0000000000000000       0x20 build/sa1/sound/songs/song162.o
 .text          0x0000000000000000        0x0 build/sa1/sound/songs/song163.o
 .data          0x0000000000000000        0x0 build/sa1/sound/songs/song163.o
 .bss           0x0000000000000000        0x0 build/sa1/sound/songs/song163.o
 .ARM.attributes
                0x0000000000000000       0x20 build/sa1/sound/songs/song163.o
 .text          0x0000000000000000        0x0 build/sa1/sound/songs/song164.o
 .data          0x0000000000000000        0x0 build/sa1/sound/songs/song164.o
 .bss           0x0000000000000000        0x0 build/sa1/sound/songs/song164.o
 .ARM.attributes
                0x0000000000000000       0x20 build/sa1/sound/songs/song164.o
 .text          0x0000000000000000        0x0 build/sa1/sound/songs/song166.o
 .data          0x0000000000000000        0x0 build/sa1/sound/songs/song166.o
 .bss           0x0000000000000000        0x0 build/sa1/sound/songs/song166.o
 .ARM.attributes
                0x0000000000000000       0x20 build/sa1/sound/songs/song166.o
 .text          0x0000000000000000        0x0 build/sa1/sound/songs/song167.o
 .data          0x0000000000000000        0x0 build/sa1/sound/songs/song167.o
 .bss           0x0000000000000000        0x0 build/sa1/sound/songs/song167.o
 .ARM.attributes
                0x0000000000000000       0x20 build/sa1/sound/songs/song167.o
 .text          0x0000000000000000        0x0 build/sa1/sound/songs/song168.o
 .data          0x0000000000000000        0x0 build/sa1/sound/songs/song168.o
 .bss           0x0000000000000000        0x0 build/sa1/sound/songs/song168.o
 .ARM.attributes
                0x0000000000000000       0x20 build/sa1/sound/songs/song168.o
 .text          0x0000000000000000        0x0 build/sa1/sound/songs/song169.o
 .data          0x0000000000000000        0x0 build/sa1/sound/songs/song169.o
 .bss           0x0000000000000000        0x0 build/sa1/sound/songs/song169.o
 .ARM.attributes
                0x0000000000000000       0x20 build/sa1/sound/songs/song169.o
 .text          0x0000000000000000        0x0 build/sa1/sound/songs/song170.o
 .data          0x0000000000000000        0x0 build/sa1/sound/songs/song170.o
 .bss           0x0000000000000000        0x0 build/sa1/sound/songs/song170.o
 .ARM.attributes
                0x0000000000000000       0x20 build/sa1/sound/songs/song170.o
 .text          0x0000000000000000        0x0 build/sa1/sound/songs/song171.o
 .data          0x0000000000000000        0x0 build/sa1/sound/songs/song171.o
 .bss           0x0000000000000000        0x0 build/sa1/sound/songs/song171.o
 .ARM.attributes
                0x0000000000000000       0x20 build/sa1/sound/songs/song171.o
 .text          0x0000000000000000        0x0 build/sa1/sound/songs/song172.o
 .data          0x0000000000000000        0x0 build/sa1/sound/songs/song172.o
 .bss           0x0000000000000000        0x0 build/sa1/sound/songs/song172.o
 .ARM.attributes
                0x0000000000000000       0x20 build/sa1/sound/songs/song172.o
 .text          0x0000000000000000        0x0 build/sa1/sound/songs/song173.o
 .data          0x0000000000000000        0x0 build/sa1/sound/songs/song173.o
 .bss           0x0000000000000000        0x0 build/sa1/sound/songs/song173.o
 .ARM.attributes
                0x0000000000000000       0x20 build/sa1/sound/songs/song173.o
 .text          0x0000000000000000        0x0 build/sa1/sound/songs/song174.o
 .data          0x0000000000000000        0x0 build/sa1/sound/songs/song174.o
 .bss           0x0000000000000000        0x0 build/sa1/sound/songs/song174.o
 .ARM.attributes
                0x0000000000000000       0x20 build/sa1/sound/songs/song174.o
 .text          0x0000000000000000        0x0 build/sa1/sound/songs/song175.o
 .data          0x0000000000000000        0x0 build/sa1/sound/songs/song175.o
 .bss           0x0000000000000000        0x0 build/sa1/sound/songs/song175.o
 .ARM.attributes
                0x0000000000000000       0x20 build/sa1/sound/songs/song175.o
 .text          0x0000000000000000        0x0 build/sa1/sound/songs/song176.o
 .data          0x0000000000000000        0x0 build/sa1/sound/songs/song176.o
 .bss           0x0000000000000000        0x0 build/sa1/sound/songs/song176.o
 .ARM.attributes
                0x0000000000000000       0x20 build/sa1/sound/songs/song176.o
 .text          0x0000000000000000        0x0 build/sa1/sound/songs/song177.o
 .data          0x0000000000000000        0x0 build/sa1/sound/songs/song177.o
 .bss           0x0000000000000000        0x0 build/sa1/sound/songs/song177.o
 .ARM.attributes
                0x0000000000000000       0x20 build/sa1/sound/songs/song177.o
 .text          0x0000000000000000        0x0 build/sa1/sound/songs/song178.o
 .data          0x0000000000000000        0x0 build/sa1/sound/songs/song178.o
 .bss           0x0000000000000000        0x0 build/sa1/sound/songs/song178.o
 .ARM.attributes
                0x0000000000000000       0x20 build/sa1/sound/songs/song178.o
 .text          0x0000000000000000        0x0 build/sa1/sound/songs/song179.o
 .data          0x0000000000000000        0x0 build/sa1/sound/songs/song179.o
 .bss           0x0000000000000000        0x0 build/sa1/sound/songs/song179.o
 .ARM.attributes
                0x0000000000000000       0x20 build/sa1/sound/songs/song179.o
 .text          0x0000000000000000        0x0 build/sa1/sound/songs/song180.o
 .data          0x0000000000000000        0x0 build/sa1/sound/songs/song180.o
 .bss           0x0000000000000000        0x0 build/sa1/sound/songs/song180.o
 .ARM.attributes
                0x0000000000000000       0x20 build/sa1/sound/songs/song180.o
 .text          0x0000000000000000        0x0 build/sa1/sound/songs/song181.o
 .data          0x0000000000000000        0x0 build/sa1/sound/songs/song181.o
 .bss           0x0000000000000000        0x0 build/sa1/sound/songs/song181.o
 .ARM.attributes
                0x0000000000000000       0x20 build/sa1/sound/songs/song181.o
 .text          0x0000000000000000        0x0 build/sa1/sound/songs/song182.o
 .data          0x0000000000000000        0x0 build/sa1/sound/songs/song182.o
 .bss           0x0000000000000000        0x0 build/sa1/sound/songs/song182.o
 .ARM.attributes
                0x0000000000000000       0x20 build/sa1/sound/songs/song182.o
 .text          0x0000000000000000        0x0 build/sa1/sound/songs/song183.o
 .data          0x0000000000000000        0x0 build/sa1/sound/songs/song183.o
 .bss           0x0000000000000000        0x0 build/sa1/sound/songs/song183.o
 .ARM.attributes
                0x0000000000000000       0x20 build/sa1/sound/songs/song183.o
 .text          0x0000000000000000        0x0 build/sa1/sound/songs/song184.o
 .data          0x0000000000000000        0x0 build/sa1/sound/songs/song184.o
 .bss           0x0000000000000000        0x0 build/sa1/sound/songs/song184.o
 .ARM.attributes
                0x0000000000000000       0x20 build/sa1/sound/songs/song184.o
 .text          0x0000000000000000        0x0 build/sa1/sound/songs/song185.o
 .data          0x0000000000000000        0x0 build/sa1/sound/songs/song185.o
 .bss           0x0000000000000000        0x0 build/sa1/sound/songs/song185.o
 .ARM.attributes
                0x0000000000000000       0x20 build/sa1/sound/songs/song185.o
 .text          0x0000000000000000        0x0 build/sa1/sound/songs/song188.o
 .data          0x0000000000000000        0x0 build/sa1/sound/songs/song188.o
 .bss           0x0000000000000000        0x0 build/sa1/sound/songs/song188.o
 .ARM.attributes
                0x0000000000000000       0x20 build/sa1/sound/songs/song188.o
 .text          0x0000000000000000        0x0 build/sa1/sound/songs/song189.o
 .data          0x0000000000000000        0x0 build/sa1/sound/songs/song189.o
 .bss           0x0000000000000000        0x0 build/sa1/sound/songs/song189.o
 .ARM.attributes
                0x0000000000000000       0x20 build/sa1/sound/songs/song189.o
 .text          0x0000000000000000        0x0 build/sa1/sound/songs/song190.o
 .data          0x0000000000000000        0x0 build/sa1/sound/songs/song190.o
 .bss           0x0000000000000000        0x0 build/sa1/sound/songs/song190.o
 .ARM.attributes
                0x0000000000000000       0x20 build/sa1/sound/songs/song190.o
 .text          0x0000000000000000        0x0 build/sa1/sound/songs/song191.o
 .data          0x0000000000000000        0x0 build/sa1/sound/songs/song191.o
 .bss           0x0000000000000000        0x0 build/sa1/sound/songs/song191.o
 .ARM.attributes
                0x0000000000000000       0x20 build/sa1/sound/songs/song191.o
 .text          0x0000000000000000        0x0 build/sa1/sound/songs/song192.o
 .data          0x0000000000000000        0x0 build/sa1/sound/songs/song192.o
 .bss           0x0000000000000000        0x0 build/sa1/sound/songs/song192.o
 .ARM.attributes
                0x0000000000000000       0x20 build/sa1/sound/songs/song192.o
 .text          0x0000000000000000        0x0 build/sa1/sound/songs/song193.o
 .data          0x0000000000000000        0x0 build/sa1/sound/songs/song193.o
 .bss           0x0000000000000000        0x0 build/sa1/sound/songs/song193.o
 .ARM.attributes
                0x0000000000000000       0x20 build/sa1/sound/songs/song193.o
 .text          0x0000000000000000        0x0 build/sa1/sound/songs/song194.o
 .data          0x0000000000000000        0x0 build/sa1/sound/songs/song194.o
 .bss           0x0000000000000000        0x0 build/sa1/sound/songs/song194.o
 .ARM.attributes
                0x0000000000000000       0x20 build/sa1/sound/songs/song194.o
 .text          0x0000000000000000        0x0 build/sa1/sound/songs/song195.o
 .data          0x0000000000000000        0x0 build/sa1/sound/songs/song195.o
 .bss           0x0000000000000000        0x0 build/sa1/sound/songs/song195.o
 .ARM.attributes
                0x0000000000000000       0x20 build/sa1/sound/songs/song195.o
 .text          0x0000000000000000        0x0 build/sa1/sound/songs/song196.o
 .data          0x0000000000000000        0x0 build/sa1/sound/songs/song196.o
 .bss           0x0000000000000000        0x0 build/sa1/sound/songs/song196.o
 .ARM.attributes
                0x0000000000000000       0x20 build/sa1/sound/songs/song196.o
 .text          0x0000000000000000        0x0 build/sa1/sound/songs/song198.o
 .data          0x0000000000000000        0x0 build/sa1/sound/songs/song198.o
 .bss           0x0000000000000000        0x0 build/sa1/sound/songs/song198.o
 .ARM.attributes
                0x0000000000000000       0x20 build/sa1/sound/songs/song198.o
 .text          0x0000000000000000        0x0 build/sa1/sound/songs/song199.o
 .data          0x0000000000000000        0x0 build/sa1/sound/songs/song199.o
 .bss           0x0000000000000000        0x0 build/sa1/sound/songs/song199.o
 .ARM.attributes
                0x0000000000000000       0x20 build/sa1/sound/songs/song199.o
 .text          0x0000000000000000        0x0 build/sa1/sound/songs/song200.o
 .data          0x0000000000000000        0x0 build/sa1/sound/songs/song200.o
 .bss           0x0000000000000000        0x0 build/sa1/sound/songs/song200.o
 .ARM.attributes
                0x0000000000000000       0x20 build/sa1/sound/songs/song200.o
 .text          0x0000000000000000        0x0 build/sa1/sound/songs/song201.o
 .data          0x0000000000000000        0x0 build/sa1/sound/songs/song201.o
 .bss           0x0000000000000000        0x0 build/sa1/sound/songs/song201.o
 .ARM.attributes
                0x0000000000000000       0x20 build/sa1/sound/songs/song201.o
 .text          0x0000000000000000        0x0 build/sa1/sound/songs/song202.o
 .data          0x0000000000000000        0x0 build/sa1/sound/songs/song202.o
 .bss           0x0000000000000000        0x0 build/sa1/sound/songs/song202.o
 .ARM.attributes
                0x0000000000000000       0x20 build/sa1/sound/songs/song202.o
 .text          0x0000000000000000        0x0 build/sa1/sound/songs/song203.o
 .data          0x0000000000000000        0x0 build/sa1/sound/songs/song203.o
 .bss           0x0000000000000000        0x0 build/sa1/sound/songs/song203.o
 .ARM.attributes
                0x0000000000000000       0x20 build/sa1/sound/songs/song203.o
 .text          0x0000000000000000        0x0 build/sa1/sound/songs/song204.o
 .data          0x0000000000000000        0x0 build/sa1/sound/songs/song204.o
 .bss           0x0000000000000000        0x0 build/sa1/sound/songs/song204.o
 .ARM.attributes
                0x0000000000000000       0x20 build/sa1/sound/songs/song204.o
 .text          0x0000000000000000        0x0 build/sa1/sound/songs/song205.o
 .data          0x0000000000000000        0x0 build/sa1/sound/songs/song205.o
 .bss           0x0000000000000000        0x0 build/sa1/sound/songs/song205.o
 .ARM.attributes
                0x0000000000000000       0x20 build/sa1/sound/songs/song205.o
 .text          0x0000000000000000        0x0 build/sa1/sound/songs/song206.o
 .data          0x0000000000000000        0x0 build/sa1/sound/songs/song206.o
 .bss           0x0000000000000000        0x0 build/sa1/sound/songs/song206.o
 .ARM.attributes
                0x0000000000000000       0x20 build/sa1/sound/songs/song206.o
 .text          0x0000000000000000        0x0 build/sa1/sound/songs/song207.o
 .data          0x0000000000000000        0x0 build/sa1/sound/songs/song207.o
 .bss           0x0000000000000000        0x0 build/sa1/sound/songs/song207.o
 .ARM.attributes
                0x0000000000000000       0x20 build/sa1/sound/songs/song207.o
 .text          0x0000000000000000        0x0 build/sa1/sound/songs/song208.o
 .data          0x0000000000000000        0x0 build/sa1/sound/songs/song208.o
 .bss           0x0000000000000000        0x0 build/sa1/sound/songs/song208.o
 .ARM.attributes
                0x0000000000000000       0x20 build/sa1/sound/songs/song208.o
 .text          0x0000000000000000        0x0 build/sa1/sound/songs/song209.o
 .data          0x0000000000000000        0x0 build/sa1/sound/songs/song209.o
 .bss           0x0000000000000000        0x0 build/sa1/sound/songs/song209.o
 .ARM.attributes
                0x0000000000000000       0x20 build/sa1/sound/songs/song209.o
 .text          0x0000000000000000        0x0 build/sa1/sound/songs/song210.o
 .data          0x0000000000000000        0x0 build/sa1/sound/songs/song210.o
 .bss           0x0000000000000000        0x0 build/sa1/sound/songs/song210.o
 .ARM.attributes
                0x0000000000000000       0x20 build/sa1/sound/songs/song210.o
 .text          0x0000000000000000        0x0 build/sa1/sound/songs/song211.o
 .data          0x0000000000000000        0x0 build/sa1/sound/songs/song211.o
 .bss           0x0000000000000000        0x0 build/sa1/sound/songs/song211.o
 .ARM.attributes
                0x0000000000000000       0x20 build/sa1/sound/songs/song211.o
 .text          0x0000000000000000        0x0 build/sa1/sound/songs/song212.o
 .data          0x0000000000000000        0x0 build/sa1/sound/songs/song212.o
 .bss           0x0000000000000000        0x0 build/sa1/sound/songs/song212.o
 .ARM.attributes
                0x0000000000000000       0x20 build/sa1/sound/songs/song212.o
 .text          0x0000000000000000        0x0 build/sa1/sound/songs/song213.o
 .data          0x0000000000000000        0x0 build/sa1/sound/songs/song213.o
 .bss           0x0000000000000000        0x0 build/sa1/sound/songs/song213.o
 .ARM.attributes
                0x0000000000000000       0x20 build/sa1/sound/songs/song213.o
 .text          0x0000000000000000        0x0 build/sa1/sound/songs/song214.o
 .data          0x0000000000000000        0x0 build/sa1/sound/songs/song214.o
 .bss           0x0000000000000000        0x0 build/sa1/sound/songs/song214.o
 .ARM.attributes
                0x0000000000000000       0x20 build/sa1/sound/songs/song214.o
 .text          0x0000000000000000        0x0 build/sa1/sound/songs/song215.o
 .data          0x0000000000000000        0x0 build/sa1/sound/songs/song215.o
 .bss           0x0000000000000000        0x0 build/sa1/sound/songs/song215.o
 .ARM.attributes
                0x0000000000000000       0x20 build/sa1/sound/songs/song215.o
 .text          0x0000000000000000        0x0 build/sa1/sound/songs/song216.o
 .data          0x0000000000000000        0x0 build/sa1/sound/songs/song216.o
 .bss           0x0000000000000000        0x0 build/sa1/sound/songs/song216.o
 .ARM.attributes
                0x0000000000000000       0x20 build/sa1/sound/songs/song216.o
 .text          0x0000000000000000        0x0 build/sa1/sound/songs/song217.o
 .data          0x0000000000000000        0x0 build/sa1/sound/songs/song217.o
 .bss           0x0000000000000000        0x0 build/sa1/sound/songs/song217.o
 .ARM.attributes
                0x0000000000000000       0x20 build/sa1/sound/songs/song217.o
 .text          0x0000000000000000        0x0 build/sa1/sound/songs/song218.o
 .data          0x0000000000000000        0x0 build/sa1/sound/songs/song218.o
 .bss           0x0000000000000000        0x0 build/sa1/sound/songs/song218.o
 .ARM.attributes
                0x0000000000000000       0x20 build/sa1/sound/songs/song218.o
 .text          0x0000000000000000        0x0 build/sa1/sound/songs/song219.o
 .data          0x0000000000000000        0x0 build/sa1/sound/songs/song219.o
 .bss           0x0000000000000000        0x0 build/sa1/sound/songs/song219.o
 .ARM.attributes
                0x0000000000000000       0x20 build/sa1/sound/songs/song219.o
 .text          0x0000000000000000        0x0 build/sa1/sound/songs/song220.o
 .data          0x0000000000000000        0x0 build/sa1/sound/songs/song220.o
 .bss           0x0000000000000000        0x0 build/sa1/sound/songs/song220.o
 .ARM.attributes
                0x0000000000000000       0x20 build/sa1/sound/songs/song220.o
 .text          0x0000000000000000        0x0 build/sa1/sound/songs/song221.o
 .data          0x0000000000000000        0x0 build/sa1/sound/songs/song221.o
 .bss           0x0000000000000000        0x0 build/sa1/sound/songs/song221.o
 .ARM.attributes
                0x0000000000000000       0x20 build/sa1/sound/songs/song221.o
 .text          0x0000000000000000        0x0 build/sa1/sound/songs/song222.o
 .data          0x0000000000000000        0x0 build/sa1/sound/songs/song222.o
 .bss           0x0000000000000000        0x0 build/sa1/sound/songs/song222.o
 .ARM.attributes
                0x0000000000000000       0x20 build/sa1/sound/songs/song222.o
 .text          0x0000000000000000        0x0 build/sa1/sound/songs/song223.o
 .data          0x0000000000000000        0x0 build/sa1/sound/songs/song223.o
 .bss           0x0000000000000000        0x0 build/sa1/sound/songs/song223.o
 .ARM.attributes
                0x0000000000000000       0x20 build/sa1/sound/songs/song223.o
 .text          0x0000000000000000        0x0 build/sa1/sound/songs/song224.o
 .data          0x0000000000000000        0x0 build/sa1/sound/songs/song224.o
 .bss           0x0000000000000000        0x0 build/sa1/sound/songs/song224.o
 .ARM.attributes
                0x0000000000000000       0x20 build/sa1/sound/songs/song224.o
 .text          0x0000000000000000        0x0 build/sa1/sound/songs/song301.o
 .data          0x0000000000000000        0x0 build/sa1/sound/songs/song301.o
 .bss           0x0000000000000000        0x0 build/sa1/sound/songs/song301.o
 .ARM.attributes
                0x0000000000000000       0x20 build/sa1/sound/songs/song301.o
 .text          0x0000000000000000        0x0 build/sa1/sound/songs/song302.o
 .data          0x0000000000000000        0x0 build/sa1/sound/songs/song302.o
 .bss           0x0000000000000000        0x0 build/sa1/sound/songs/song302.o
 .ARM.attributes
                0x0000000000000000       0x20 build/sa1/sound/songs/song302.o
 .text          0x0000000000000000        0x0 build/sa1/sound/songs/song303.o
 .data          0x0000000000000000        0x0 build/sa1/sound/songs/song303.o
 .bss           0x0000000000000000        0x0 build/sa1/sound/songs/song303.o
 .ARM.attributes
                0x0000000000000000       0x20 build/sa1/sound/songs/song303.o
 .text          0x0000000000000000        0x0 build/sa1/sound/songs/song304.o
 .data          0x0000000000000000        0x0 build/sa1/sound/songs/song304.o
 .bss           0x0000000000000000        0x0 build/sa1/sound/songs/song304.o
 .ARM.attributes
                0x0000000000000000       0x20 build/sa1/sound/songs/song304.o
 .text          0x0000000000000000        0x0 build/sa1/sound/songs/song305.o
 .data          0x0000000000000000        0x0 build/sa1/sound/songs/song305.o
 .bss           0x0000000000000000        0x0 build/sa1/sound/songs/song305.o
 .ARM.attributes
                0x0000000000000000       0x20 build/sa1/sound/songs/song305.o
 .text          0x0000000000000000        0x0 build/sa1/sound/songs/song306.o
 .data          0x0000000000000000        0x0 build/sa1/sound/songs/song306.o
 .bss           0x0000000000000000        0x0 build/sa1/sound/songs/song306.o
 .ARM.attributes
                0x0000000000000000       0x20 build/sa1/sound/songs/song306.o
 .text          0x0000000000000000        0x0 build/sa1/sound/songs/song307.o
 .data          0x0000000000000000        0x0 build/sa1/sound/songs/song307.o
 .bss           0x0000000000000000        0x0 build/sa1/sound/songs/song307.o
 .ARM.attributes
                0x0000000000000000       0x20 build/sa1/sound/songs/song307.o
 .text          0x0000000000000000        0x0 build/sa1/data/data1.o
 .data          0x0000000000000000        0x0 build/sa1/data/data1.o
 .bss           0x0000000000000000        0x0 build/sa1/data/data1.o
 .ARM.attributes
                0x0000000000000000       0x20 build/sa1/data/data1.o
 .text          0x0000000000000000        0x0 build/sa1/asm/rom_footer.o
 .data          0x0000000000000000        0x0 build/sa1/asm/rom_footer.o
 .bss           0x0000000000000000        0x0 build/sa1/asm/rom_footer.o
 .ARM.attributes
                0x0000000000000000       0x20 build/sa1/asm/rom_footer.o
 .text          0x0000000000000000        0x0 build/sa1/asm/lib_m4a.o
 .data          0x0000000000000000        0x0 build/sa1/asm/lib_m4a.o
 .bss           0x0000000000000000        0x0 build/sa1/asm/lib_m4a.o
 .ARM.attributes
                0x0000000000000000       0x20 build/sa1/asm/lib_m4a.o
 .text          0x0000000000000000        0x0 build/sa1/asm/task.o
 .data          0x0000000000000000        0x0 build/sa1/asm/task.o
 .bss           0x0000000000000000        0x0 build/sa1/asm/task.o
 .ARM.attributes
                0x0000000000000000       0x20 build/sa1/asm/task.o
 .data          0x0000000000000000        0x0 tools/agbcc/lib/libgcc.a(_call_via_rX.o)
 .ARM.attributes
                0x0000000000000000       0x20 tools/agbcc/lib/libgcc.a(_call_via_rX.o)
 .data          0x0000000000000000        0x0 tools/agbcc/lib/libgcc.a(_divsi3.o)
 .ARM.attributes
                0x0000000000000000       0x20 tools/agbcc/lib/libgcc.a(_divsi3.o)
 .data          0x0000000000000000        0x0 tools/agbcc/lib/libgcc.a(_dvmd_tls.o)
 .ARM.attributes
                0x0000000000000000       0x20 tools/agbcc/lib/libgcc.a(_dvmd_tls.o)
 .data          0x0000000000000000        0x0 tools/agbcc/lib/libgcc.a(_modsi3.o)
 .ARM.attributes
                0x0000000000000000       0x20 tools/agbcc/lib/libgcc.a(_modsi3.o)
 .data          0x0000000000000000        0x0 tools/agbcc/lib/libgcc.a(_udivsi3.o)
 .ARM.attributes
                0x0000000000000000       0x20 tools/agbcc/lib/libgcc.a(_udivsi3.o)
 .data          0x0000000000000000        0x0 tools/agbcc/lib/libgcc.a(_umodsi3.o)
 .ARM.attributes
                0x0000000000000000       0x20 tools/agbcc/lib/libgcc.a(_umodsi3.o)
 .data          0x0000000000000000        0x0 tools/agbcc/lib/libgcc.a(dp-bit.o)
 .ARM.attributes
                0x0000000000000000       0x20 tools/agbcc/lib/libgcc.a(dp-bit.o)
 .data          0x0000000000000000        0x0 tools/agbcc/lib/libgcc.a(fp-bit.o)
 .ARM.attributes
                0x0000000000000000       0x20 tools/agbcc/lib/libgcc.a(fp-bit.o)
 .data          0x0000000000000000        0x0 tools/agbcc/lib/libgcc.a(_lshrdi3.o)
 .ARM.attributes
                0x0000000000000000       0x20 tools/agbcc/lib/libgcc.a(_lshrdi3.o)
 .data          0x0000000000000000        0x0 tools/agbcc/lib/libgcc.a(_muldi3.o)
 .ARM.attributes
                0x0000000000000000       0x20 tools/agbcc/lib/libgcc.a(_muldi3.o)
 .data          0x0000000000000000        0x0 tools/agbcc/lib/libgcc.a(_negdi2.o)
 .ARM.attributes
                0x0000000000000000       0x20 tools/agbcc/lib/libgcc.a(_negdi2.o)
 .data          0x0000000000000000        0x0 tools/agbcc/lib/libc.a(memcpy.o)
 .bss           0x0000000000000000        0x0 tools/agbcc/lib/libc.a(memcpy.o)
 .ARM.attributes
                0x0000000000000000       0x20 tools/agbcc/lib/libc.a(memcpy.o)
 .data          0x0000000000000000        0x0 tools/agbcc/lib/libc.a(memset.o)
 .bss           0x0000000000000000        0x0 tools/agbcc/lib/libc.a(memset.o)
 .ARM.attributes
                0x0000000000000000       0x20 tools/agbcc/lib/libc.a(memset.o)

Memory Configuration

Name             Origin             Length             Attributes
*default*        0x0000000000000000 0xffffffffffffffff

Linker script and memory map

                0x0000000000000004                gNumMusicPlayers = 0x4
                0x0000000000000000                gMaxLines = 0x0
                0x0000000008000000                . = 0x8000000

ROM             0x0000000008000000   0x7ff04b
 build/sa1/asm/rom_header.o(.text)
 .text          0x0000000008000000       0xc0 build/sa1/asm/rom_header.o
                0x0000000008000004                RomHeaderNintendoLogo
 build/sa1/asm/crt0.o(.text)
 .text          0x00000000080000c0      0x10c build/sa1/asm/crt0.o
                0x00000000080000c0                start_vector
                0x00000000080000fc                IntrMain
 build/sa1/asm/multi_sio_asm.o(.text)
 .text          0x00000000080001cc      0x160 build/sa1/asm/multi_sio_asm.o
                0x00000000080001cc                MultiSioRecvBufChange
                0x000000000800020c                MultiSioIntr
 build/sa1/asm/rom_header_old.o(.text)
 .text          0x000000000800032c       0xc0 build/sa1/asm/rom_header_old.o
 build/sa1/asm/core.o(.text)
 .text          0x00000000080003ec     0x10a8 build/sa1/asm/core.o
                0x00000000080003ec                EngineInit
                0x000000000800089c                EngineMainLoop
                0x0000000008000980                UpdateScreenDma
                0x0000000008000c54                ClearOamBufferDma
                0x0000000008000d34                UpdateScreenCpuSet
                0x0000000008000f44                VBlankIntr
                0x000000000800116c                ProcessVramGraphicsCopyQueue
                0x0000000008001224                GetInput
                0x0000000008001314                HBlankIntr
                0x0000000008001364                VCountIntr
                0x0000000008001370                Dma0Intr
                0x0000000008001380                Dma1Intr
                0x0000000008001390                Dma2Intr
                0x00000000080013a0                Dma3Intr
                0x00000000080013b0                Timer0Intr
                0x00000000080013bc                Timer1Intr
                0x00000000080013c8                Timer2Intr
                0x00000000080013d4                KeypadIntr
                0x00000000080013e4                GamepakIntr
                0x00000000080013f8                ClearOamBufferCpuSet
 build/sa1/src/main.o(.text)
 .text          0x0000000008001494       0x14 build/sa1/src/main.o
                0x0000000008001494                AgbMain
 build/sa1/src/task.o(.text)
 .text          0x00000000080014a8      0x518 build/sa1/src/task.o
                0x00000000080014a8                TasksInit
                0x0000000008001588                TaskCreate
                0x0000000008001620                TaskDestroy
                0x00000000080016ac                TasksExec
                0x0000000008001780                IwramMalloc
                0x0000000008001954                TasksDestroyInPriorityRange
 build/sa1/asm/bg_update.o(.text)
 .text          0x00000000080019c0      0xbf0 build/sa1/asm/bg_update.o
                0x00000000080019c0                DrawBackground
                0x0000000008001aa4                sub_8001AA4
 build/sa1/asm/animation_commands_bg.o(.text)
 .text          0x00000000080025b0      0xddc build/sa1/asm/animation_commands_bg.o
                0x00000000080025b0                UpdateBgAnimationTiles
                0x0000000008002658                sub_8002658
                0x0000000008002778                animCmd_GetTiles_BG
                0x00000000080027e4                animCmd_AddHitbox_BG
                0x0000000008002888                sub_8002888
                0x0000000008002958                sub_8002958
                0x0000000008002e58                sub_8002E58
                0x0000000008002f84                sub_8002F84
                0x00000000080031e8                sub_80031E8
                0x0000000008003288                animCmd_GetPalette_BG
                0x00000000080032f4                animCmd_JumpBack_BG
                0x0000000008003300                animCmd_End_BG
                0x0000000008003310                animCmd_PlaySoundEffect_BG
                0x0000000008003324                animCmd_TranslateSprite_BG
                0x0000000008003340                animCmd_8_BG
                0x000000000800334c                animCmd_SetIdAndVariant_BG
                0x000000000800336c                animCmd_10_BG
                0x0000000008003374                animCmd_SetSpritePriority_BG
                0x0000000008003380                animCmd_SetOamOrder_BG
 build/sa1/asm/sprite.o(.text)
 .text          0x000000000800338c     0x16f8 build/sa1/asm/sprite.o
                0x000000000800338c                sub_800338C
                0x000000000800344c                numToTileIndices
                0x000000000800348c                sub_800348C
                0x00000000080034cc                UpdateSpriteAnimation
                0x00000000080035f4                animCmd_GetTiles
                0x0000000008003660                animCmd_AddHitbox
                0x0000000008003710                sub_8003710
                0x00000000080037d0                sub_80037D0
                0x0000000008003a2c                sub_8003A2C
                0x0000000008003d84                sub_8003D84
                0x0000000008004158                DisplaySprite
                0x0000000008004454                sub_8004454
                0x00000000080047fc                OamMalloc
                0x0000000008004894                CopyOamBufferToOam
 build/sa1/asm/animation_commands.o(.text)
 .text          0x0000000008004a84      0x118 build/sa1/asm/animation_commands.o
                0x0000000008004a84                animCmd_GetPalette
                0x0000000008004af0                animCmd_JumpBack
                0x0000000008004afc                animCmd_End
                0x0000000008004b0c                animCmd_PlaySoundEffect
                0x0000000008004b20                animCmd_TranslateSprite
                0x0000000008004b3c                animCmd_8
                0x0000000008004b48                animCmd_SetIdAndVariant
                0x0000000008004b68                animCmd_10
                0x0000000008004b70                animCmd_SetSpritePriority
                0x0000000008004b8c                animCmd_SetOamOrder
 build/sa1/asm/sprite_4.o(.text)
 .text          0x0000000008004b9c     0x1ed8 build/sa1/asm/sprite_4.o
                0x0000000008004b9c                sub_8004B9C
                0x0000000008004efc                sub_8004EFC
                0x0000000008005170                sub_8005170
                0x00000000080053f0                sub_80053F0
                0x0000000008005674                sub_8005674
                0x0000000008005cfc                sub_8005CFC
                0x0000000008006194                sub_8006194
                0x0000000008006518                sub_8006518
                0x0000000008006680                sub_8006680
                0x00000000080067a0                sub_80067A0
                0x000000000800681c                sub_800681C
                0x00000000080068a0                sub_80068A0
                0x0000000008006950                sub_8006950
                0x0000000008006a08                sub_8006A08
 build/sa1/asm/malloc_ewram.o(.text)
 .text          0x0000000008006a74       0xe0 build/sa1/asm/malloc_ewram.o
                0x0000000008006a74                EwramInitHeap
                0x0000000008006a88                EwramMalloc
                0x0000000008006ae8                EwramFree
 build/sa1/asm/malloc_vram.o(.text)
 .text          0x0000000008006b54      0x10c build/sa1/asm/malloc_vram.o
                0x0000000008006b54                VramMalloc
                0x0000000008006c0c                VramResetHeapState
                0x0000000008006c34                VramFree
 build/sa1/asm/multi_sio.o(.text)
 .text          0x0000000008006c60      0x4b0 build/sa1/asm/multi_sio.o
                0x0000000008006c60                MultiSioInit
                0x0000000008006d54                MultiSioMain
                0x0000000008006e6c                MultiSioSendDataSet
                0x0000000008006f3c                MultiSioRecvDataCheck
                0x00000000080070a8                MultiSioStart
                0x00000000080070c0                MultiSioStop
 build/sa1/asm/multi_boot.o(.text)
 .text          0x0000000008007110      0x8d8 build/sa1/asm/multi_boot.o
                0x0000000008007110                MultiBootMain
                0x000000000800762c                MultiBootSend
                0x00000000080076a4                MultiBootStartProbe
                0x00000000080076f8                MultiBootStartMaster
                0x0000000008007838                MultiBootHandShake
                0x0000000008007954                MultiBootInit
                0x0000000008007990                MultiBootCheckComplete
                0x00000000080079a0                MultiBootWaitSendDone
 build/sa1/asm/sio32_multi_load.o(.text)
 .text          0x00000000080079e8      0x348 build/sa1/asm/sio32_multi_load.o
                0x00000000080079e8                Sio32MultiLoadMain
                0x0000000008007bcc                Sio32MultiLoadIntr
                0x0000000008007c94                Sio32MultiLoadInit
 build/sa1/asm/stage__rings_manager.o(.text)
 .text          0x0000000008007d30      0xa54 build/sa1/asm/stage__rings_manager.o
                0x0000000008007d30                CreateStageRingsManager
                0x0000000008007e3c                Task_RingsMgrMain
                0x000000000800876c                TaskDestructor_8007F1C
 build/sa1/asm/stage__entities_manager.o(.text)
 .text          0x0000000008008784      0xf2c build/sa1/asm/stage__entities_manager.o
                0x0000000008008784                CreateStageEntitiesManager
                0x00000000080088a8                sub_80088A8
                0x0000000008008cec                Task_8008CEC
                0x00000000080095cc                CreateEnemyDefeatScoreAndManageLives
                0x0000000008009670                TaskDestructor_8009670
                0x0000000008009684                TaskDtor_8009684
 build/sa1/asm/game_0.o(.text)
 .text          0x00000000080096b0    0x1241c build/sa1/asm/game_0.o
                0x00000000080096b0                sub_80096B0
                0x00000000080097e4                sub_80097E4
                0x000000000800a3a8                sub_800A3A8
                0x000000000800a6a4                sub_800A6A4
                0x000000000800a768                sub_800A768
                0x000000000800a850                sub_800A850
                0x000000000800abec                sub_800ABEC
                0x000000000800afdc                sub_800AFDC
                0x000000000800b1d4                sub_800B1D4
                0x000000000800b2bc                sub_800B2BC
                0x000000000800b4f8                sub_800B4F8
                0x000000000800b798                sub_800B798
                0x000000000800b8b4                sub_800B8B4
                0x000000000800ba5c                sub_800BA5C
                0x000000000800bcbc                sub_800BCBC
                0x000000000800bf10                sub_800BF10
                0x000000000800bfec                sub_800BFEC
                0x000000000800c0e0                sub_800C0E0
                0x000000000800c1e8                sub_800C1E8
                0x000000000800c2b8                sub_800C2B8
                0x000000000800c394                sub_800C394
                0x000000000800c558                sub_800C558
                0x000000000800c714                sub_800C714
                0x000000000800c760                sub_800C760
                0x000000000800c848                sub_800C848
                0x000000000800c934                sub_800C934
                0x000000000800cbbc                sub_800CBBC
                0x000000000800ce34                sub_800CE34
                0x000000000800ce98                sub_800CE98
                0x000000000800cf04                CreatePaletteLoaderTask
                0x000000000800cf90                Task_StagePaletteLoader
                0x000000000800cfb8                sub_800CFB8
                0x000000000800d098                sub_800D098
                0x000000000800d11c                sub_800D11C
                0x000000000800d198                sub_800D198
                0x000000000800d268                sub_800D268
                0x000000000800d364                sub_800D364
                0x000000000800d3c4                sub_800D3C4
                0x000000000800d3e0                sub_800D3E0
                0x000000000800d40c                sub_800D40C
                0x000000000800d434                sub_800D434
                0x000000000800d450                sub_800D450
                0x000000000800d498                sub_800D498
                0x000000000800d4b0                sub_800D4B0
                0x000000000800d4e0                sub_800D4E0
                0x000000000800d71c                sub_800D71C
                0x000000000800d7ec                sub_800D7EC
                0x000000000800d878                sub_800D878
                0x000000000800d8fc                sub_800D8FC
                0x000000000800db6c                sub_800DB6C
                0x000000000800dcfc                sub_800DCFC
                0x000000000800de44                sub_800DE44
                0x000000000800dee4                sub_800DEE4
                0x000000000800df88                sub_800DF88
                0x000000000800e008                sub_800E008
                0x000000000800e020                sub_800E020
                0x000000000800e044                sub_800E044
                0x000000000800e060                sub_800E060
                0x000000000800e0c4                sub_800E0C4
                0x000000000800e128                sub_800E128
                0x000000000800e220                sub_800E220
                0x000000000800e34c                sub_800E34C
                0x000000000800e404                sub_800E404
                0x000000000800e470                sub_800E470
                0x000000000800e648                sub_800E648
                0x000000000800e798                sub_800E798
                0x000000000800e868                sub_800E868
                0x000000000800e934                sub_800E934
                0x000000000800eb4c                sub_800EB4C
                0x000000000800f058                sub_800F058
                0x000000000800f318                sub_800F318
                0x000000000800f5f0                sub_800F5F0
                0x000000000800f9bc                sub_800F9BC
                0x000000000800fbf8                sub_800FBF8
                0x000000000800fcfc                sub_800FCFC
                0x000000000800fd9c                sub_800FD9C
                0x000000000800feb0                sub_800FEB0
                0x000000000800fef4                sub_800FEF4
                0x000000000800ff38                sub_800FF38
                0x000000000800ff68                sub_800FF68
                0x000000000800ff94                sub_800FF94
                0x000000000800ffe0                sub_800FFE0
                0x0000000008010020                sub_8010020
                0x0000000008010048                sub_8010048
                0x0000000008010060                sub_8010060
                0x00000000080100a8                sub_80100A8
                0x00000000080102a8                sub_80102A8
                0x00000000080103c4                sub_80103C4
                0x0000000008010580                sub_8010580
                0x00000000080105d4                sub_80105D4
                0x00000000080105f8                sub_80105F8
                0x000000000801061c                sub_801061C
                0x0000000008010b6c                sub_8010B6C
                0x0000000008010cb4                sub_8010CB4
                0x0000000008010e90                sub_8010E90
                0x0000000008010f00                sub_8010F00
                0x0000000008010f70                sub_8010F70
                0x0000000008010fdc                sub_8010FDC
                0x000000000801104c                sub_801104C
                0x0000000008011104                sub_8011104
                0x000000000801123c                sub_801123C
                0x00000000080114a0                sub_80114A0
                0x00000000080115d4                sub_80115D4
                0x000000000801166c                sub_801166C
                0x0000000008011684                sub_8011684
                0x00000000080116a0                sub_80116A0
                0x00000000080116bc                sub_80116BC
                0x00000000080116d8                sub_80116D8
                0x000000000801171c                sub_801171C
                0x0000000008011738                sub_8011738
                0x000000000801176c                sub_801176C
                0x00000000080117a8                sub_80117A8
                0x0000000008011b7c                sub_8011B7C
                0x0000000008011c94                sub_8011C94
                0x0000000008011d88                sub_8011D88
                0x0000000008011da0                sub_8011DA0
                0x0000000008011db8                sub_8011DB8
                0x0000000008011dd0                sub_8011DD0
                0x0000000008011e08                sub_8011E08
                0x0000000008011e54                Task_Spotlights
                0x00000000080122d0                TaskDestructor_Spotlights
                0x00000000080122e4                sub_80122E4
                0x00000000080123e4                sub_80123E4
                0x00000000080124c4                sub_80124C4
                0x000000000801252c                sub_801252C
                0x00000000080125c0                sub_80125C0
                0x00000000080126b4                sub_80126B4
                0x0000000008012720                nullsub_8012720
                0x0000000008012724                nullsub_8012724
                0x0000000008012728                sub_8012728
                0x00000000080127dc                sub_80127DC
                0x0000000008012848                sub_8012848
                0x00000000080128ac                sub_80128AC
                0x00000000080128c0                sub_80128C0
                0x0000000008012a38                sub_8012A38
                0x0000000008012ba8                sub_8012BA8
                0x0000000008012c34                sub_8012C34
                0x0000000008012c70                sub_8012C70
                0x0000000008012ca8                sub_8012CA8
                0x0000000008012d98                sub_8012D98
                0x0000000008012ea4                sub_8012EA4
                0x0000000008012f6c                sub_8012F6C
                0x0000000008012fc4                sub_8012FC4
                0x0000000008012fe8                sub_8012FE8
                0x0000000008013078                sub_8013078
                0x00000000080130bc                sub_80130BC
                0x00000000080130f0                sub_80130F0
                0x0000000008013400                sub_8013400
                0x0000000008013df0                sub_8013DF0
                0x0000000008014144                sub_8014144
                0x000000000801473c                sub_801473C
                0x0000000008014d0c                sub_8014D0C
                0x0000000008015024                sub_8015024
                0x00000000080151ac                sub_80151AC
                0x00000000080152c8                sub_80152C8
                0x0000000008015674                sub_8015674
                0x0000000008015728                sub_8015728
                0x0000000008015754                sub_8015754
                0x00000000080157a8                sub_80157A8
                0x0000000008015810                sub_8015810
                0x00000000080158d4                sub_80158D4
                0x0000000008015c5c                sub_8015C5C
                0x0000000008015d88                sub_8015D88
                0x0000000008015e6c                sub_8015E6C
                0x0000000008015f60                sub_8015F60
                0x0000000008015ffc                sub_8015FFC
                0x000000000801615c                sub_801615C
                0x000000000801623c                sub_801623C
                0x0000000008016490                sub_8016490
                0x0000000008016650                sub_8016650
                0x000000000801685c                sub_801685C
                0x00000000080168f0                sub_80168F0
                0x0000000008016a14                sub_8016A14
                0x0000000008016b6c                sub_8016B6C
                0x0000000008016d80                sub_8016D80
                0x0000000008016e54                sub_8016E54
                0x0000000008016f44                sub_8016F44
                0x0000000008017054                sub_8017054
                0x00000000080171bc                sub_80171BC
                0x0000000008017244                sub_8017244
                0x00000000080172cc                sub_80172CC
                0x0000000008017334                sub_8017334
                0x0000000008017400                sub_8017400
                0x000000000801749c                sub_801749C
                0x00000000080174dc                sub_80174DC
                0x0000000008017540                sub_8017540
                0x00000000080175a8                sub_80175A8
                0x00000000080175c4                sub_80175C4
                0x00000000080175d8                sub_80175D8
                0x0000000008017658                sub_8017658
                0x000000000801766c                sub_801766C
                0x000000000801769c                sub_801769C
                0x0000000008017750                sub_8017750
                0x00000000080177ec                sub_80177EC
                0x0000000008017800                sub_8017800
                0x00000000080178c0                sub_80178C0
                0x000000000801796c                Task_801796C
                0x00000000080179f4                sub_80179F4
                0x0000000008017a30                sub_8017A30
                0x0000000008017b54                sub_8017B54
                0x0000000008017c04                sub_8017C04
                0x0000000008017f10                sub_8017F10
                0x00000000080181f8                sub_80181F8
                0x000000000801827c                sub_801827C
                0x00000000080182fc                sub_80182FC
                0x0000000008018318                sub_8018318
                0x0000000008018380                sub_8018380
                0x00000000080183d4                sub_80183D4
                0x0000000008018428                sub_8018428
                0x0000000008018440                sub_8018440
                0x0000000008018490                sub_8018490
                0x00000000080184d0                sub_80184D0
                0x0000000008018538                sub_8018538
                0x000000000801874c                sub_801874C
                0x0000000008018ae0                sub_8018AE0
                0x0000000008018ecc                sub_8018ECC
                0x0000000008019348                sub_8019348
                0x00000000080196fc                sub_80196FC
                0x0000000008019c14                sub_8019C14
                0x0000000008019d18                sub_8019D18
                0x0000000008019d9c                sub_8019D9C
                0x0000000008019db0                sub_8019DB0
                0x000000000801a110                sub_801A110
                0x000000000801a1a4                sub_801A1A4
                0x000000000801a38c                sub_801A38C
                0x000000000801a574                sub_801A574
                0x000000000801a6b8                sub_801A6B8
                0x000000000801a70c                sub_801A70C
                0x000000000801a728                sub_801A728
                0x000000000801a794                sub_801A794
                0x000000000801ab34                sub_801AB34
                0x000000000801ae88                sub_801AE88
                0x000000000801b06c                sub_801B06C
                0x000000000801b0b8                sub_801B0B8
                0x000000000801b1b4                sub_801B1B4
                0x000000000801b500                sub_801B500
                0x000000000801b574                sub_801B574
                0x000000000801b6f4                sub_801B6F4
                0x000000000801baa0                sub_801BAA0
 build/sa1/asm/ia_itembox_chaohunt.o(.text)
 .text          0x000000000801bacc      0xc38 build/sa1/asm/ia_itembox_chaohunt.o
                0x000000000801bacc                CreateEntity_ItemBox_ChaoHunt
                0x000000000801bcc4                Task_Interactable115_Main1
                0x000000000801bd64                Task_Interactable115_Main0
                0x000000000801c130                sub_801C130
                0x000000000801c2fc                sub_801C2FC
                0x000000000801c3a0                sub_801C3A0
                0x000000000801c420                sub_801C420
                0x000000000801c4ec                sub_801C4EC
                0x000000000801c5c4                sub_801C5C4
                0x000000000801c69c                sub_801C69C
                0x000000000801c6e8                TaskDestructor_Interactable115
 build/sa1/asm/game_tasks_0.o(.text)
 .text          0x000000000801c704      0x67c build/sa1/asm/game_tasks_0.o
                0x000000000801c704                sub_801C704
                0x000000000801c770                Task_801C770
                0x000000000801c810                Task_801C810
                0x000000000801c8d4                Task_801C8D4
                0x000000000801c980                TaskDestructor_801C980
                0x000000000801c9ac                sub_801C9AC
                0x000000000801c9c0                sub_801C9C0
                0x000000000801c9d8                sub_801C9D8
                0x000000000801cb80                Task_801CB80
 build/sa1/asm/game_tasks_1.o(.text)
 .text          0x000000000801cd80      0x65c build/sa1/asm/game_tasks_1.o
                0x000000000801cd80                Task_801CD80
                0x000000000801cf08                sub_801CF08
                0x000000000801d0cc                sub_801D0CC
                0x000000000801d200                sub_801D200
                0x000000000801d34c                sub_801D34C
                0x000000000801d3c8                TaskDestructor_801D3C8
 build/sa1/asm/enemy_kiki.o(.text)
 .text          0x000000000801d3dc      0x8a8 build/sa1/asm/enemy_kiki.o
                0x000000000801d3dc                CreateEntity_Kiki
                0x000000000801d4fc                sub_801D4FC
                0x000000000801d680                sub_801D680
                0x000000000801d7f8                CreateKikiProjectile
                0x000000000801d8e4                Task_KikiProjMain
                0x000000000801d9f0                Task_KikiProjSplit
                0x000000000801da88                CreateKikiProjectilePiece
                0x000000000801db40                Task_ProjPieceMain
                0x000000000801dc70                TaskDestructor_KikiProj
 build/sa1/asm/enemy_buzzer.o(.text)
 .text          0x000000000801dc84      0x7e8 build/sa1/asm/enemy_buzzer.o
                0x000000000801dc84                CreateEntity_Buzzer
                0x000000000801ddec                Task_BuzzerMain
                0x000000000801e034                Task_801E034
                0x000000000801e190                Task_Buzzer_801E190
                0x000000000801e2c0                CreateBuzzerProjectile
                0x000000000801e3dc                Task_BuzzerProjectileMain
 build/sa1/asm/collect_ring_effect.o(.text)
 .text          0x000000000801e46c      0x19c build/sa1/asm/collect_ring_effect.o
                0x000000000801e46c                CreateCollectRingEffect
                0x000000000801e59c                Task_CollectRingEffect
 build/sa1/asm/item_box.o(.text)
 .text          0x000000000801e608      0xb78 build/sa1/asm/item_box.o
                0x000000000801e608                CreateEntity_ItemBox
                0x000000000801e7c8                Task_ItemBoxMain
                0x000000000801ec28                Task_Itembox2
                0x000000000801f044                Task_Itembox3
                0x000000000801f0e8                Task_Itembox4
                0x000000000801f164                TaskDestructor_ItemBox
 build/sa1/asm/ia_stage_goal.o(.text)
 .text          0x000000000801f180      0xd50 build/sa1/asm/ia_stage_goal.o
                0x000000000801f180                CreateEntity_StageGoal
                0x000000000801f298                Task_StageGoal
                0x000000000801f680                Task_StageGoal2
                0x000000000801fa28                Task_StageGoal3
                0x000000000801fab8                Task_StageGoal4
                0x000000000801fda0                Task_StageGoal5
                0x000000000801fe00                Task_StageGoal6
                0x000000000801fe84                Task_ShowResults
 build/sa1/src/sakit/dust_cloud.o(.text)
 .text          0x000000000801fed0       0xf4 build/sa1/src/sakit/dust_cloud.o
                0x000000000801fed0                CreateDustCloud
 build/sa1/asm/ia_spikes.o(.text)
 .text          0x000000000801ffc4     0x1528 build/sa1/asm/ia_spikes.o
                0x000000000801ffc4                CreateEntity_Spikes_Up
                0x00000000080200b0                CreateEntity_Spikes_Down
                0x0000000008020190                Task_Spikes_Up
                0x000000000802035c                Task_Spikes_Down
                0x0000000008020528                CreateEntity_Spikes_Horizontal
                0x0000000008020644                Task_Spikes_Horizontal
                0x0000000008020958                CreateEntity_Spikes_HidingUp
                0x0000000008020a4c                Task_Spikes_HidingUp
                0x0000000008020b4c                CreateEntity_Spikes_HidingDown
                0x0000000008020c44                Task_Spikes_HidingDown
                0x0000000008020d44                sub_8020D44
                0x0000000008020e98                sub_8020E98
                0x0000000008020f2c                sub_8020F2C
                0x0000000008021208                sub_8021208
                0x00000000080214d8                TaskDestructor_Spikes
 build/sa1/asm/ia_checkpoint.o(.text)
 .text          0x00000000080214ec      0x4b4 build/sa1/asm/ia_checkpoint.o
                0x00000000080214ec                CreateEntity_Checkpoint
                0x0000000008021608                Task_CheckpointMain
                0x0000000008021838                Task_Checkpoint1
                0x0000000008021908                Task_Checkpoint2
 build/sa1/asm/ia_spring.o(.text)
 .text          0x00000000080219a0     0x17e0 build/sa1/asm/ia_spring.o
                0x00000000080219a0                CreateEntity_Spring_Normal_Up
                0x0000000008021ae4                sub_8021AE4
                0x0000000008021bc0                sub_8021BC0
                0x0000000008021ca0                CreateEntity_Spring_Normal_Down
                0x0000000008021d94                sub_8021D94
                0x0000000008021e70                sub_8021E70
                0x0000000008021f50                CreateEntity_Spring_Horizontal
                0x0000000008022068                sub_8022068
                0x00000000080220fc                sub_80220FC
                0x00000000080221a8                CreateEntity_Spring_Big_Up
                0x00000000080222c0                sub_80222C0
                0x0000000008022354                sub_8022354
                0x0000000008022400                CreateEntity_Spring_Small_Up
                0x0000000008022500                sub_8022500
                0x0000000008022594                sub_8022594
                0x0000000008022640                sub_8022640
                0x0000000008022804                sub_8022804
                0x00000000080228d0                sub_80228D0
                0x0000000008022ab4                sub_8022AB4
                0x0000000008022e14                sub_8022E14
                0x000000000802316c                sub_802316C
 build/sa1/asm/ia_decoration.o(.text)
 .text          0x0000000008023180      0x77c build/sa1/asm/ia_decoration.o
                0x0000000008023180                CreateEntity_Decoration
                0x000000000802326c                Task_DecorationMain
                0x00000000080234d0                sub_80234D0
                0x0000000008023698                sub_8023698
                0x00000000080238e0                sub_80238E0
 build/sa1/asm/ia_toggle_player_layer.o(.text)
 .text          0x00000000080238fc      0x20c build/sa1/asm/ia_toggle_player_layer.o
                0x00000000080238fc                sub_80238FC
                0x0000000008023aa4                CreateEntity_Toggle_PlayerLayer
 build/sa1/asm/ia_grind_rail.o(.text)
 .text          0x0000000008023b08      0x4f0 build/sa1/asm/ia_grind_rail.o
                0x0000000008023b08                Task_GrindRailStart
                0x0000000008023c88                Task_GrindRailEnd
                0x0000000008023ed0                sub_8023ED0
                0x0000000008023efc                Task_8023EFC
                0x0000000008023f30                CreateEntity_GrindRail_Start
                0x0000000008023f94                CreateEntity_GrindRail_End
 build/sa1/asm/ia_platform_thin.o(.text)
 .text          0x0000000008023ff8      0xb38 build/sa1/asm/ia_platform_thin.o
                0x0000000008023ff8                CreateEntity_PlatformThin
                0x000000000802417c                sub_802417C
                0x0000000008024448                CreateEntity_PlatformThin_Falling
                0x0000000008024574                sub_8024574
                0x000000000802473c                sub_802473C
                0x000000000802492c                sub_802492C
                0x0000000008024b1c                sub_8024B1C
 build/sa1/asm/sakit__ring__magnetic_ring.o(.text)
 .text          0x0000000008024b30      0x25c build/sa1/asm/sakit__ring__magnetic_ring.o
                0x0000000008024b30                CreateMagneticRing
                0x0000000008024bc8                Task_MagneticRing
 build/sa1/asm/ia_platform_crumbling.o(.text)
 .text          0x0000000008024d8c      0x864 build/sa1/asm/ia_platform_crumbling.o
                0x0000000008024d8c                CreateEntity_PlatformCrumbling
                0x0000000008024ea0                Task_PlatformCrumbling
                0x0000000008025008                sub_8025008
                0x0000000008025190                sub_8025190
                0x0000000008025400                sub_8025400
                0x00000000080255dc                TaskDestructor_PlatformCrumbling
 build/sa1/asm/ia_to_be_continued_text.o(.text)
 .text          0x00000000080255f0      0x1b0 build/sa1/asm/ia_to_be_continued_text.o
                0x00000000080255f0                Task_ToBeContinuedText
                0x00000000080256d4                sub_80256D4
                0x0000000008025714                sub_8025714
                0x0000000008025754                CreateEntity_ToBeContinuedText
 build/sa1/asm/sound_unk.o(.text)
 .text          0x00000000080257a0      0x250 build/sa1/asm/sound_unk.o
                0x00000000080257a0                sub_80257A0
                0x0000000008025884                sub_8025884
                0x0000000008025898                sub_8025898
                0x00000000080258ac                sub_80258AC
                0x0000000008025920                sub_8025920
                0x0000000008025980                sub_8025980
 build/sa1/asm/boss_1.o(.text)
 .text          0x00000000080259f0     0x1f80 build/sa1/asm/boss_1.o
                0x00000000080259f0                CreateEntity_EggHammerTank_Intro
                0x0000000008025be0                sub_8025BE0
                0x0000000008025cc4                sub_8025CC4
                0x0000000008025d80                sub_8025D80
                0x0000000008025e6c                sub_8025E6C
                0x0000000008025f3c                CreateEntity_EggHammerTank
                0x000000000802611c                Task_802611C
                0x00000000080264c8                sub_80264C8
                0x0000000008026c44                sub_8026C44
                0x0000000008026ed0                sub_8026ED0
                0x0000000008027100                CreateEHTArm
                0x00000000080271e4                sub_80271E4
                0x00000000080272d0                sub_80272D0
                0x00000000080273e4                CreateEHTHammer
                0x00000000080274ac                Task_EHTHammer
                0x0000000008027600                sub_8027600
                0x0000000008027714                sub_8027714
                0x000000000802784c                sub_802784C
                0x0000000008027868                Task_EggHammerTankMain
                0x00000000080278c8                TaskDestructor_EggHammerTank
                0x0000000008027918                Task_EHTArm
                0x0000000008027948                TaskDestructor_EHTArm
                0x000000000802795c                TaskDestructor_EHTHammer
 build/sa1/asm/ia_breakable_wall.o(.text)
 .text          0x0000000008027970      0x6c4 build/sa1/asm/ia_breakable_wall.o
                0x0000000008027970                CreateEntity_BreakableWall
                0x0000000008027a84                Task_Interactable114
                0x0000000008027d88                sub_8027D88
                0x0000000008028020                TaskDestructor_Interactable114
 build/sa1/asm/game_1.o(.text)
 .text          0x0000000008028034     0x5680 build/sa1/asm/game_1.o
                0x0000000008028034                sub_8028034
                0x000000000802816c                sub_802816C
                0x0000000008028388                sub_8028388
                0x0000000008028518                sub_8028518
                0x00000000080286b0                sub_80286B0
                0x000000000802888c                sub_802888C
                0x0000000008028910                sub_8028910
                0x0000000008028a1c                sub_8028A1C
                0x0000000008028aac                sub_8028AAC
                0x0000000008028c70                sub_8028C70
                0x0000000008028c84                sub_8028C84
                0x0000000008028ce4                sub_8028CE4
                0x0000000008028f20                sub_8028F20
                0x0000000008029070                sub_8029070
                0x0000000008029194                sub_8029194
                0x00000000080294a8                sub_80294A8
                0x00000000080297e8                sub_80297E8
                0x0000000008029860                sub_8029860
                0x00000000080298c0                sub_80298C0
                0x0000000008029908                sub_8029908
                0x00000000080299b0                sub_80299B0
                0x0000000008029a50                sub_8029A50
                0x0000000008029ac4                sub_8029AC4
                0x0000000008029b74                sub_8029B74
                0x0000000008029cdc                sub_8029CDC
                0x0000000008029e0c                sub_8029E0C
                0x0000000008029ea8                sub_8029EA8
                0x0000000008029f30                sub_8029F30
                0x0000000008029fa4                sub_8029FA4
                0x000000000802a068                sub_802A068
                0x000000000802a134                sub_802A134
                0x000000000802a248                sub_802A248
                0x000000000802a4c4                sub_802A4C4
                0x000000000802a560                sub_802A560
                0x000000000802a688                sub_802A688
                0x000000000802a890                sub_802A890
                0x000000000802a988                sub_802A988
                0x000000000802aa48                sub_802AA48
                0x000000000802aaf0                sub_802AAF0
                0x000000000802aba0                sub_802ABA0
                0x000000000802ac50                sub_802AC50
                0x000000000802acf0                sub_802ACF0
                0x000000000802ad9c                sub_802AD9C
                0x000000000802ae40                sub_802AE40
                0x000000000802b008                sub_802B008
                0x000000000802b07c                sub_802B07C
                0x000000000802b18c                sub_802B18C
                0x000000000802b214                sub_802B214
                0x000000000802b3e4                sub_802B3E4
                0x000000000802b5dc                sub_802B5DC
                0x000000000802b66c                sub_802B66C
                0x000000000802b884                sub_802B884
                0x000000000802bbf0                sub_802BBF0
                0x000000000802bc6c                sub_802BC6C
                0x000000000802be0c                sub_802BE0C
                0x000000000802bedc                sub_802BEDC
                0x000000000802c04c                sub_802C04C
                0x000000000802c0cc                sub_802C0CC
                0x000000000802c224                sub_802C224
                0x000000000802c2dc                sub_802C2DC
                0x000000000802c488                sub_802C488
                0x000000000802c56c                sub_802C56C
                0x000000000802c6c4                sub_802C6C4
                0x000000000802c89c                sub_802C89C
                0x000000000802c934                sub_802C934
                0x000000000802ca90                sub_802CA90
                0x000000000802d158                sub_802D158
                0x000000000802d190                sub_802D190
                0x000000000802d1d8                sub_802D1D8
                0x000000000802d20c                sub_802D20C
                0x000000000802d238                Task_802D238
                0x000000000802d274                sub_802D274
                0x000000000802d2a8                sub_802D2A8
                0x000000000802d2bc                sub_802D2BC
                0x000000000802d2f4                sub_802D2F4
                0x000000000802d33c                sub_802D33C
                0x000000000802d37c                sub_802D37C
                0x000000000802d3e4                sub_802D3E4
                0x000000000802d450                sub_802D450
                0x000000000802d464                sub_802D464
                0x000000000802d4c4                sub_802D4C4
                0x000000000802d508                sub_802D508
                0x000000000802d560                sub_802D560
                0x000000000802d578                sub_802D578
                0x000000000802d58c                sub_802D58C
                0x000000000802d5ec                sub_802D5EC
                0x000000000802d66c                sub_802D66C
                0x000000000802d680                sub_802D680
 build/sa1/asm/bosses.o(.text)
 .text          0x000000000802d6b4     0xd29c build/sa1/asm/bosses.o
                0x000000000802d6b4                sub_802D6B4
                0x000000000802d6fc                sub_802D6FC
                0x000000000802d748                sub_802D748
                0x000000000802d870                sub_802D870
                0x000000000802d908                sub_802D908
                0x000000000802d960                CreateEntity_EggPress
                0x000000000802db4c                Task_EggPressMain
                0x000000000802dc3c                sub_802DC3C
                0x000000000802ddcc                sub_802DDCC
                0x000000000802defc                sub_802DEFC
                0x000000000802e130                sub_802E130
                0x000000000802e290                sub_802E290
                0x000000000802e3dc                sub_802E3DC
                0x000000000802e500                sub_802E500
                0x000000000802e714                sub_802E714
                0x000000000802e868                sub_802E868
                0x000000000802ea8c                sub_802EA8C
                0x000000000802ecfc                sub_802ECFC
                0x000000000802ef08                TaskDestructor_EggPress
                0x000000000802ef24                sub_802EF24
                0x000000000802ef60                sub_802EF60
                0x000000000802ef94                sub_802EF94
                0x000000000802f0d0                sub_802F0D0
                0x000000000802f168                CreateEntity_EggBall
                0x000000000802f4a8                Task_EggBallMain
                0x000000000802f56c                sub_802F56C
                0x000000000802f644                sub_802F644
                0x000000000802f804                sub_802F804
                0x000000000802f9f8                sub_802F9F8
                0x000000000802fb2c                sub_802FB2C
                0x000000000802fc14                sub_802FC14
                0x000000000802fe88                sub_802FE88
                0x0000000008030120                sub_8030120
                0x000000000803020c                sub_803020C
                0x0000000008030364                sub_8030364
                0x0000000008030414                sub_8030414
                0x000000000803053c                sub_803053C
                0x00000000080305a0                sub_80305A0
                0x0000000008030724                TaskDestructor_EggBall
                0x0000000008030740                sub_8030740
                0x0000000008030754                sub_8030754
                0x0000000008030778                sub_8030778
                0x0000000008030814                sub_8030814
                0x0000000008030850                sub_8030850
                0x0000000008030870                sub_8030870
                0x00000000080308a4                sub_80308A4
                0x00000000080309cc                sub_80309CC
                0x0000000008030a60                CreateEntity_EggSpider
                0x0000000008030ca4                sub_8030CA4
                0x0000000008030ee4                sub_8030EE4
                0x00000000080311d4                sub_80311D4
                0x0000000008031480                sub_8031480
                0x000000000803170c                sub_803170C
                0x0000000008031998                sub_8031998
                0x0000000008031ab4                sub_8031AB4
                0x0000000008031cb4                sub_8031CB4
                0x0000000008031cd0                sub_8031CD0
                0x0000000008031d0c                sub_8031D0C
                0x0000000008031d54                sub_8031D54
                0x0000000008031d88                sub_8031D88
                0x0000000008031ed0                sub_8031ED0
                0x0000000008031f74                sub_8031F74
                0x0000000008031fc8                CreateEntity_EggSnake
                0x00000000080321c0                sub_80321C0
                0x0000000008032370                sub_8032370
                0x00000000080327c4                sub_80327C4
                0x0000000008032af8                sub_8032AF8
                0x0000000008032d44                sub_8032D44
                0x0000000008032f58                sub_8032F58
                0x000000000803330c                sub_803330C
                0x000000000803341c                sub_803341C
                0x0000000008033480                sub_8033480
                0x00000000080335c0                sub_80335C0
                0x0000000008033730                sub_8033730
                0x0000000008033878                sub_8033878
                0x0000000008033924                sub_8033924
                0x00000000080339bc                sub_80339BC
                0x0000000008033aa0                sub_8033AA0
                0x0000000008034098                sub_8034098
                0x0000000008034208                sub_8034208
                0x0000000008034224                sub_8034224
                0x0000000008034238                sub_8034238
                0x000000000803424c                sub_803424C
                0x000000000803426c                sub_803426C
                0x00000000080342a0                sub_80342A0
                0x00000000080343e0                sub_80343E0
                0x0000000008034478                CreateEntity_EggWrecker
                0x0000000008034644                sub_8034644
                0x0000000008034718                sub_8034718
                0x000000000803491c                sub_803491C
                0x0000000008034b7c                sub_8034B7C
                0x0000000008034ca0                sub_8034CA0
                0x0000000008034ee0                sub_8034EE0
                0x0000000008035010                sub_8035010
                0x00000000080352c0                sub_80352C0
                0x0000000008035354                sub_8035354
                0x000000000803540c                sub_803540C
                0x00000000080354f4                sub_80354F4
                0x0000000008035588                sub_8035588
                0x0000000008035768                sub_8035768
                0x00000000080357fc                sub_80357FC
                0x0000000008035818                sub_8035818
                0x000000000803582c                sub_803582C
                0x00000000080358c8                sub_80358C8
                0x0000000008035904                sub_8035904
                0x0000000008035938                sub_8035938
                0x000000000803596c                sub_803596C
                0x0000000008035aac                sub_8035AAC
                0x0000000008035b44                CreateEntity_EggDrillster
                0x0000000008035d18                sub_8035D18
                0x0000000008035dd4                sub_8035DD4
                0x0000000008035f70                sub_8035F70
                0x0000000008036150                sub_8036150
                0x000000000803623c                sub_803623C
                0x0000000008036478                sub_8036478
                0x00000000080365ac                sub_80365AC
                0x000000000803673c                sub_803673C
                0x0000000008036810                sub_8036810
                0x0000000008036994                sub_8036994
                0x0000000008036b94                sub_8036B94
                0x0000000008036cc4                sub_8036CC4
                0x0000000008036ce0                sub_8036CE0
                0x0000000008036cf4                sub_8036CF4
                0x0000000008036d90                sub_8036D90
                0x0000000008036dcc                sub_8036DCC
                0x0000000008036dec                sub_8036DEC
                0x0000000008036e20                sub_8036E20
                0x0000000008036f9c                sub_8036F9C
                0x00000000080370b4                sub_80370B4
                0x000000000803711c                sub_803711C
                0x00000000080371c8                CreateEntity_EggX
                0x00000000080373fc                Task_EggXMain
                0x000000000803753c                sub_803753C
                0x000000000803775c                sub_803775C
                0x000000000803803c                sub_803803C
                0x0000000008038154                sub_8038154
                0x0000000008038420                sub_8038420
                0x0000000008038554                sub_8038554
                0x000000000803891c                sub_803891C
                0x0000000008038b38                sub_8038B38
                0x0000000008038bc8                sub_8038BC8
                0x0000000008038c20                sub_8038C20
                0x0000000008038d2c                sub_8038D2C
                0x0000000008038e34                sub_8038E34
                0x0000000008038f04                sub_8038F04
                0x0000000008039074                sub_8039074
                0x0000000008039108                sub_8039108
                0x000000000803918c                sub_803918C
                0x0000000008039264                sub_8039264
                0x000000000803967c                sub_803967C
                0x00000000080397a8                sub_80397A8
                0x0000000008039940                sub_8039940
                0x0000000008039a64                sub_8039A64
                0x000000000803a170                sub_803A170
                0x000000000803a1d8                sub_803A1D8
                0x000000000803a2f8                sub_803A2F8
                0x000000000803a46c                sub_803A46C
                0x000000000803a530                TaskDestructor_EggX
                0x000000000803a54c                sub_803A54C
                0x000000000803a594                sub_803A594
                0x000000000803a5d0                sub_803A5D0
                0x000000000803a5ec                sub_803A5EC
                0x000000000803a600                sub_803A600
                0x000000000803a614                sub_803A614
                0x000000000803a650                sub_803A650
                0x000000000803a6ec                sub_803A6EC
                0x000000000803a7d4                sub_803A7D4
                0x000000000803a870                sub_803A870
                0x000000000803a8ac                sub_803A8AC
                0x000000000803a8cc                sub_803A8CC
                0x000000000803a900                sub_803A900
 build/sa1/asm/game_1_1.o(.text)
 .text          0x000000000803a950    0x12344 build/sa1/asm/game_1_1.o
                0x000000000803a950                sub_803A950
                0x000000000803ab60                sub_803AB60
                0x000000000803b534                sub_803B534
                0x000000000803b570                sub_803B570
                0x000000000803b7ac                sub_803B7AC
                0x000000000803b944                sub_803B944
                0x000000000803bad4                sub_803BAD4
                0x000000000803bc64                sub_803BC64
                0x000000000803be0c                sub_803BE0C
                0x000000000803beb8                sub_803BEB8
                0x000000000803bfe8                sub_803BFE8
                0x000000000803c130                sub_803C130
                0x000000000803c184                sub_803C184
                0x000000000803c198                sub_803C198
                0x000000000803c1ac                sub_803C1AC
                0x000000000803c3e0                sub_803C3E0
                0x000000000803c5a8                sub_803C5A8
                0x000000000803c648                sub_803C648
                0x000000000803c784                sub_803C784
                0x000000000803c93c                sub_803C93C
                0x000000000803c974                sub_803C974
                0x000000000803cb48                sub_803CB48
                0x000000000803cb7c                sub_803CB7C
                0x000000000803cbc0                GameInit
                0x000000000803cd34                sub_803CD34
                0x000000000803ce00                sub_803CE00
                0x000000000803ce2c                sub_803CE2C
                0x000000000803ce44                sub_803CE44
                0x000000000803ce48                sub_803CE48
                0x000000000803ce54                sub_803CE54
                0x000000000803cf9c                sub_803CF9C
                0x000000000803d290                sub_803D290
                0x000000000803d590                sub_803D590
                0x000000000803d66c                sub_803D66C
                0x000000000803d724                sub_803D724
                0x000000000803d888                sub_803D888
                0x000000000803d940                sub_803D940
                0x000000000803d9f8                sub_803D9F8
                0x000000000803db2c                sub_803DB2C
                0x000000000803dbd4                sub_803DBD4
                0x000000000803dc48                sub_803DC48
                0x000000000803dc84                sub_803DC84
                0x000000000803dccc                sub_803DCCC
                0x000000000803dd00                sub_803DD00
                0x000000000803dd78                sub_803DD78
                0x000000000803ddbc                sub_803DDBC
                0x000000000803de00                sub_803DE00
                0x000000000803de44                sub_803DE44
                0x000000000803de88                sub_803DE88
                0x000000000803dea8                sub_803DEA8
                0x000000000803dec8                sub_803DEC8
                0x000000000803df58                sub_803DF58
                0x000000000803df64                sub_803DF64
                0x000000000803df70                sub_803DF70
                0x000000000803dfc0                sub_803DFC0
                0x000000000803e004                sub_803E004
                0x000000000803e094                sub_803E094
                0x000000000803e0e4                InitCamera
                0x000000000803e410                sub_803E410
                0x000000000803e6c4                sub_803E6C4
                0x000000000803e78c                StageBgUpdate_Zone1Acts12
                0x000000000803e878                StageBgUpdate_Zone2_Interior
                0x000000000803ea24                sub_803EA24
                0x000000000803eac0                StageBgUpdate_Zone3Acts12
                0x000000000803ed84                StageBgUpdate_Zone4Acts12
                0x000000000803ee84                StageBgUpdate_Zone6Act1
                0x000000000803f400                StageBgUpdate_Zone6Act2
                0x000000000803f52c                StageBgUpdate_Zone7Act2
                0x000000000803f644                sub_803F644
                0x000000000803f65c                sub_803F65C
                0x000000000803f6c4                sub_803F6C4
                0x000000000803f700                sub_803F700
                0x000000000803f714                CreateStageBg_Zone4
                0x000000000803f770                CreateStageBg_Zone5
                0x000000000803f7a8                StageBgUpdate_Zone7Act1
                0x000000000803f808                CreateStageBg_Zone7_Act2
                0x000000000803f854                StageBgUpdate_Zone2Act1
                0x000000000803f8a0                StageBgUpdate_Zone2Act2
                0x000000000803f8c0                StageBgUpdate_Zone5Acts12
                0x000000000803f920                sub_803F920
                0x000000000803f92c                sub_803F92C
                0x000000000803f968                sub_803F968
                0x000000000803f9a8                sub_803F9A8
                0x000000000803fa1c                sub_803FA1C
                0x000000000803fa74                sub_803FA74
                0x000000000803fc64                sub_803FC64
                0x000000000803fd5c                sub_803FD5C
                0x000000000803fe44                sub_803FE44
                0x000000000803ff84                sub_803FF84
                0x00000000080400b4                sub_80400B4
                0x0000000008040160                sub_8040160
                0x0000000008040198                sub_8040198
                0x000000000804021c                sub_804021C
                0x0000000008040278                sub_8040278
                0x00000000080403dc                sub_80403DC
                0x0000000008040488                sub_8040488
                0x00000000080404a0                sub_80404A0
                0x0000000008040570                sub_8040570
                0x00000000080405e4                sub_80405E4
                0x000000000804061c                sub_804061C
                0x0000000008040638                sub_8040638
                0x0000000008040648                sub_8040648
                0x00000000080406cc                sub_80406CC
                0x00000000080407bc                sub_80407BC
                0x00000000080408ac                sub_80408AC
                0x00000000080408c0                sub_80408C0
                0x0000000008040944                sub_8040944
                0x00000000080409e4                sub_80409E4
                0x00000000080409f8                sub_80409F8
                0x0000000008040b10                sub_8040B10
                0x0000000008040c1c                sub_8040C1C
                0x0000000008040d5c                sub_8040D5C
                0x0000000008041188                sub_8041188
                0x00000000080415f4                sub_80415F4
                0x0000000008041adc                sub_8041ADC
                0x0000000008041fc8                sub_8041FC8
                0x0000000008041fe0                sub_8041FE0
                0x0000000008042000                sub_8042000
                0x0000000008042020                sub_8042020
                0x000000000804202c                sub_804202C
                0x0000000008042104                sub_8042104
                0x00000000080421ac                sub_80421AC
                0x000000000804221c                sub_804221C
                0x0000000008042428                Player_8042428
                0x00000000080425c4                sub_80425C4
                0x000000000804269c                sub_804269C
                0x0000000008042770                sub_8042770
                0x0000000008042848                sub_8042848
                0x0000000008042900                sub_8042900
                0x0000000008042a68                sub_8042A68
                0x0000000008042b90                sub_8042B90
                0x0000000008042cec                sub_8042CEC
                0x0000000008042e3c                Player_8042E3C
                0x0000000008042ec4                sub_8042EC4
                0x0000000008042f6c                sub_8042F6C
                0x0000000008043088                sub_8043088
                0x0000000008043194                sub_8043194
                0x00000000080432b8                sub_80432B8
                0x00000000080433dc                sub_80433DC
                0x0000000008043460                sub_8043460
                0x0000000008043578                sub_8043578
                0x0000000008043688                sub_8043688
                0x0000000008043798                sub_8043798
                0x00000000080438a0                Player_80438A0
                0x0000000008043970                sub_8043970
                0x0000000008043a2c                sub_8043A2C
                0x0000000008043ad8                sub_8043AD8
                0x0000000008043ba8                sub_8043BA8
                0x0000000008043c98                Player_8043C98
                0x0000000008043d40                Player_8043D40
                0x0000000008043ddc                sub_8043DDC
                0x0000000008043ec0                Player_8043EC0
                0x00000000080440a4                sub_80440A4
                0x0000000008044250                sub_8044250
                0x0000000008044434                sub_8044434
                0x00000000080445a0                Player_80445A0
                0x0000000008044670                Player_8044670
                0x0000000008044750                sub_8044750
                0x00000000080447d8                sub_80447D8
                0x00000000080448d0                sub_80448D0
                0x00000000080449d8                sub_80449D8
                0x0000000008044a6c                sub_8044A6C
                0x0000000008044d74                sub_8044D74
                0x0000000008044e48                sub_8044E48
                0x0000000008044f7c                sub_8044F7C
                0x000000000804516c                sub_804516C
                0x000000000804521c                sub_804521C
                0x0000000008045304                sub_8045304
                0x0000000008045418                sub_8045418
                0x000000000804550c                sub_804550C
                0x000000000804571c                sub_804571C
                0x000000000804597c                sub_804597C
                0x0000000008045ad8                sub_8045AD8
                0x0000000008045b38                sub_8045B38
                0x0000000008045cfc                sub_8045CFC
                0x0000000008045df0                sub_8045DF0
                0x0000000008046008                sub_8046008
                0x00000000080462fc                sub_80462FC
                0x0000000008046af4                sub_8046AF4
                0x0000000008046cb8                sub_8046CB8
                0x0000000008046cc4                sub_8046CC4
                0x0000000008046cec                sub_8046CEC
                0x0000000008046d50                sub_8046D50
                0x0000000008046d9c                sub_8046D9C
                0x0000000008046de8                sub_8046DE8
                0x0000000008046e34                sub_8046E34
                0x0000000008046e80                sub_8046E80
                0x0000000008046eb0                sub_8046EB0
                0x0000000008046ee0                sub_8046EE0
                0x0000000008046fac                Player_8046FAC
                0x0000000008046fe8                sub_8046FE8
                0x0000000008047018                sub_8047018
                0x0000000008047064                sub_8047064
                0x0000000008047088                Player_8047088
                0x00000000080470ac                Player_80470AC
                0x00000000080470e8                Player_80470E8
                0x0000000008047134                Player_8047134
                0x0000000008047150                sub_8047150
                0x0000000008047190                sub_8047190
                0x00000000080471d4                Player_80471D4
                0x0000000008047224                Player_8047224
                0x000000000804726c                Player_804726C
                0x0000000008047280                Player_8047280
                0x00000000080472ac                sub_80472AC
                0x00000000080472b8                sub_80472B8
                0x0000000008047328                sub_8047328
                0x0000000008047354                sub_8047354
                0x00000000080473ac                sub_80473AC
                0x0000000008047508                sub_8047508
                0x000000000804756c                sub_804756C
                0x00000000080475fc                sub_80475FC
                0x0000000008047668                sub_8047668
                0x0000000008047714                sub_8047714
                0x0000000008047774                sub_8047774
                0x000000000804780c                sub_804780C
                0x000000000804784c                sub_804784C
                0x0000000008047890                sub_8047890
                0x00000000080478e0                sub_80478E0
                0x000000000804792c                sub_804792C
                0x0000000008047990                sub_8047990
                0x0000000008047a3c                sub_8047A3C
                0x0000000008047b04                sub_8047B04
                0x0000000008047ba0                sub_8047BA0
                0x0000000008047d04                sub_8047D04
                0x0000000008047e18                sub_8047E18
                0x0000000008047e94                sub_8047E94
                0x0000000008047f2c                sub_8047F2C
                0x0000000008047fa0                sub_8047FA0
                0x0000000008047fe4                sub_8047FE4
                0x0000000008048024                sub_8048024
                0x0000000008048060                sub_8048060
                0x00000000080480c4                sub_80480C4
                0x0000000008048110                sub_8048110
                0x0000000008048148                sub_8048148
                0x00000000080481b8                sub_80481B8
                0x0000000008048230                sub_8048230
                0x00000000080484cc                sub_80484CC
                0x0000000008048524                sub_8048524
                0x00000000080485cc                sub_80485CC
                0x0000000008048650                sub_8048650
                0x00000000080486e8                sub_80486E8
                0x0000000008048980                sub_8048980
                0x0000000008048adc                sub_8048ADC
                0x0000000008048b38                sub_8048B38
                0x0000000008048c3c                sub_8048C3C
                0x0000000008048cb0                sub_8048CB0
                0x0000000008048d74                sub_8048D74
                0x0000000008048e34                sub_8048E34
                0x0000000008049000                sub_8049000
                0x00000000080490e8                sub_80490E8
                0x00000000080491c4                sub_80491C4
                0x0000000008049208                sub_8049208
                0x0000000008049284                sub_8049284
                0x00000000080492e4                sub_80492E4
                0x0000000008049348                sub_8049348
                0x0000000008049370                sub_8049370
                0x000000000804948c                Player_804948C
                0x00000000080494e8                sub_80494E8
                0x00000000080495f0                Player_80495F0
                0x00000000080497ac                sub_80497AC
                0x0000000008049854                sub_8049854
                0x0000000008049898                sub_8049898
                0x00000000080499cc                Player_80499CC
                0x0000000008049a34                sub_8049A34
                0x0000000008049ab8                Player_8049AB8
                0x0000000008049bac                sub_8049BAC
                0x0000000008049c0c                Player_8049C0C
                0x0000000008049d7c                sub_8049D7C
                0x0000000008049e3c                Player_8049E3C
                0x0000000008049fd0                sub_8049FD0
                0x000000000804a0b8                Player_804A0B8
                0x000000000804a1b8                sub_804A1B8
                0x000000000804a20c                Player_804A20C
                0x000000000804a254                Player_804A254
                0x000000000804a278                sub_804A278
                0x000000000804a2b8                sub_804A2B8
                0x000000000804a2fc                sub_804A2FC
                0x000000000804a320                sub_804A320
                0x000000000804a354                sub_804A354
                0x000000000804a35c                sub_804A35C
                0x000000000804a37c                sub_804A37C
                0x000000000804a3b8                sub_804A3B8
                0x000000000804a3c0                sub_804A3C0
                0x000000000804a498                sub_804A498
                0x000000000804a54c                sub_804A54C
                0x000000000804a5d8                sub_804A5D8
                0x000000000804a71c                sub_804A71C
                0x000000000804a830                sub_804A830
                0x000000000804a848                sub_804A848
                0x000000000804a854                sub_804A854
                0x000000000804a8a8                sub_804A8A8
                0x000000000804aac4                sub_804AAC4
                0x000000000804ac4c                sub_804AC4C
                0x000000000804ad0c                sub_804AD0C
                0x000000000804ae14                sub_804AE14
                0x000000000804af00                sub_804AF00
                0x000000000804afcc                sub_804AFCC
                0x000000000804b0d8                sub_804B0D8
                0x000000000804b1fc                sub_804B1FC
                0x000000000804b2bc                sub_804B2BC
                0x000000000804b32c                sub_804B32C
                0x000000000804b370                sub_804B370
                0x000000000804b420                sub_804B420
                0x000000000804b570                sub_804B570
                0x000000000804b5cc                sub_804B5CC
                0x000000000804b678                sub_804B678
                0x000000000804b71c                sub_804B71C
                0x000000000804b7c8                sub_804B7C8
                0x000000000804b86c                sub_804B86C
                0x000000000804b994                sub_804B994
                0x000000000804babc                sub_804BABC
                0x000000000804bb98                sub_804BB98
                0x000000000804bd70                sub_804BD70
                0x000000000804be68                sub_804BE68
                0x000000000804be7c                sub_804BE7C
                0x000000000804bf70                sub_804BF70
                0x000000000804c02c                sub_804C02C
                0x000000000804c12c                sub_804C12C
                0x000000000804c1c0                sub_804C1C0
                0x000000000804c2e8                sub_804C2E8
                0x000000000804c3cc                sub_804C3CC
                0x000000000804c3fc                sub_804C3FC
                0x000000000804c40c                sub_804C40C
                0x000000000804c598                sub_804C598
                0x000000000804c5d8                sub_804C5D8
                0x000000000804c668                sub_804C668
                0x000000000804c894                sub_804C894
                0x000000000804c8ac                sub_804C8AC
                0x000000000804c910                sub_804C910
                0x000000000804c960                sub_804C960
                0x000000000804c9d4                sub_804C9D4
                0x000000000804ca60                sub_804CA60
                0x000000000804cb20                sub_804CB20
                0x000000000804cc14                sub_804CC14
                0x000000000804cc68                sub_804CC68
 build/sa1/src/input_recorder.o(.text)
 .text          0x000000000804cc94       0xec build/sa1/src/input_recorder.o
                0x000000000804cc94                InputRecorderResetRecordHead
                0x000000000804cca0                InputRecorderResetPlaybackHead
                0x000000000804ccac                InputRecorderLoadTape
                0x000000000804cd00                InputRecorderRead
                0x000000000804cd2c                InputRecorderWrite
 build/sa1/asm/game_1_2.o(.text)
 .text          0x000000000804cd80      0x3f8 build/sa1/asm/game_1_2.o
                0x000000000804cd80                sub_804CD80
                0x000000000804cdf8                sub_804CDF8
                0x000000000804cedc                sub_804CEDC
                0x000000000804cf1c                sub_804CF1C
                0x000000000804cf5c                sub_804CF5C
                0x000000000804cf88                sub_804CF88
                0x000000000804cfa0                sub_804CFA0
                0x000000000804cfc0                sub_804CFC0
                0x000000000804cfe0                sub_804CFE0
                0x000000000804d02c                sub_804D02C
                0x000000000804d060                sub_804D060
                0x000000000804d100                sub_804D100
                0x000000000804d13c                sub_804D13C
 build/sa1/asm/ia_half_pipe.o(.text)
 .text          0x000000000804d178      0x5b8 build/sa1/asm/ia_half_pipe.o
                0x000000000804d178                Task_HalfPipeStart
                0x000000000804d308                Task_HalfPipeEnd
                0x000000000804d4a0                sub_804D4A0
                0x000000000804d600                CreateEntity_HalfPipeStart
                0x000000000804d698                CreateEntity_HalfPipeEnd
 build/sa1/asm/ia_034.o(.text)
 .text          0x000000000804d730      0x1b8 build/sa1/asm/ia_034.o
                0x000000000804d730                Task_Interactable034
                0x000000000804d860                CreateEntity_Interactable034
 build/sa1/asm/ia_mini_loop_base.o(.text)
 .text          0x000000000804d8e8      0x194 build/sa1/asm/ia_mini_loop_base.o
                0x000000000804d8e8                Task_MiniLoop_Base
                0x000000000804d9f4                CreateEntity_MiniLoop_Base
 build/sa1/asm/ia_water_bridge.o(.text)
 .text          0x000000000804da7c      0x360 build/sa1/asm/ia_water_bridge.o
                0x000000000804da7c                CreateEntity_WaterBridge
                0x000000000804db78                Task_WaterBridge
                0x000000000804ddc4                TaskDestructor_WaterBridge
 build/sa1/asm/ia_043.o(.text)
 .text          0x000000000804dddc      0x174 build/sa1/asm/ia_043.o
                0x000000000804dddc                CreateEntity_Interactable043
                0x000000000804deb8                Task_Interactable043
                0x000000000804df38                TaskDestructor_Interactable043
 build/sa1/asm/ia_mini_loop.o(.text)
 .text          0x000000000804df50      0x43c build/sa1/asm/ia_mini_loop.o
                0x000000000804df50                Task_MiniLoop_StartBoost
                0x000000000804e028                Task_MiniLoop_Exit
                0x000000000804e110                CreateEntity_MiniLoop_StartBoost
                0x000000000804e198                CreateEntity_MiniLoop_Exit
                0x000000000804e220                Task_MiniLoop_Entrance
                0x000000000804e304                CreateEntity_MiniLoop_Entrance
 build/sa1/asm/ia_039.o(.text)
 .text          0x000000000804e38c      0x170 build/sa1/asm/ia_039.o
                0x000000000804e38c                Task_Interactable039Main
                0x000000000804e474                CreateEntity_Interactable039
 build/sa1/asm/game_2.o(.text)
 .text          0x000000000804e4fc    0x1da7c build/sa1/asm/game_2.o
                0x000000000804e4fc                CreateEntity_MechaKnuckles
                0x000000000804e594                sub_804E594
                0x000000000804e8d4                sub_804E8D4
                0x000000000804eb04                sub_804EB04
                0x000000000804eb90                sub_804EB90
                0x000000000804ec60                sub_804EC60
                0x000000000804ed80                sub_804ED80
                0x000000000804ee20                sub_804EE20
                0x000000000804eea8                sub_804EEA8
                0x000000000804ef18                sub_804EF18
                0x000000000804efa0                sub_804EFA0
                0x000000000804f020                sub_804F020
                0x000000000804f09c                sub_804F09C
                0x000000000804f1d4                sub_804F1D4
                0x000000000804f4bc                sub_804F4BC
                0x000000000804f630                sub_804F630
                0x000000000804f73c                sub_804F73C
                0x000000000804f760                sub_804F760
                0x000000000804f788                sub_804F788
                0x000000000804f78c                sub_804F78C
                0x000000000804f790                sub_804F790
                0x000000000804f7b0                sub_804F7B0
                0x000000000804f7b4                sub_804F7B4
                0x000000000804f7c0                sub_804F7C0
                0x000000000804f7c4                sub_804F7C4
                0x000000000804f7c8                sub_804F7C8
                0x000000000804f7cc                sub_804F7CC
                0x000000000804f7d0                sub_804F7D0
                0x000000000804f7dc                sub_804F7DC
                0x000000000804f7e8                sub_804F7E8
                0x000000000804f7ec                sub_804F7EC
                0x000000000804f7f0                sub_804F7F0
                0x000000000804f7f4                sub_804F7F4
                0x000000000804f834                sub_804F834
                0x000000000804f860                sub_804F860
                0x000000000804f888                sub_804F888
                0x000000000804f8d4                sub_804F8D4
                0x000000000804f8d8                sub_804F8D8
                0x000000000804f8dc                sub_804F8DC
                0x000000000804f934                sub_804F934
                0x000000000804f95c                sub_804F95C
                0x000000000804f984                sub_804F984
                0x000000000804f990                sub_804F990
                0x000000000804f9b0                sub_804F9B0
                0x000000000804fa08                sub_804FA08
                0x000000000804fa38                sub_804FA38
                0x000000000804fa54                sub_804FA54
                0x000000000804fa70                sub_804FA70
                0x000000000804fa9c                sub_804FA9C
                0x000000000804fac8                sub_804FAC8
                0x000000000804faf0                sub_804FAF0
                0x000000000804fb10                sub_804FB10
                0x000000000804fb30                sub_804FB30
                0x000000000804fb5c                sub_804FB5C
                0x000000000804fb7c                sub_804FB7C
                0x000000000804fba8                sub_804FBA8
                0x000000000804fbe4                sub_804FBE4
                0x000000000804fc28                sub_804FC28
                0x000000000804fc78                sub_804FC78
                0x000000000804fca4                sub_804FCA4
                0x000000000804fcec                sub_804FCEC
                0x000000000804fd54                sub_804FD54
                0x000000000804fdb8                sub_804FDB8
                0x000000000804fdd4                sub_804FDD4
                0x000000000804fe20                sub_804FE20
                0x000000000804fe3c                sub_804FE3C
                0x000000000804fe54                sub_804FE54
                0x0000000008050194                sub_8050194
                0x00000000080504dc                sub_80504DC
                0x0000000008050888                sub_8050888
                0x0000000008050a88                sub_8050A88
                0x0000000008050fb4                sub_8050FB4
                0x0000000008051344                sub_8051344
                0x0000000008051604                sub_8051604
                0x00000000080518e8                sub_80518E8
                0x00000000080519e8                sub_80519E8
                0x0000000008051c44                sub_8051C44
                0x0000000008051e38                sub_8051E38
                0x000000000805202c                sub_805202C
                0x00000000080520b8                sub_80520B8
                0x0000000008052150                sub_8052150
                0x0000000008052340                CreateEntity_SuperEggRobot
                0x00000000080523c0                sub_80523C0
                0x00000000080523d4                sub_80523D4
                0x00000000080523f8                sub_80523F8
                0x0000000008052424                sub_8052424
                0x0000000008052468                sub_8052468
                0x0000000008052474                sub_8052474
                0x00000000080524f0                sub_80524F0
                0x0000000008052578                sub_8052578
                0x00000000080525e0                sub_80525E0
                0x000000000805265c                sub_805265C
                0x00000000080526c4                sub_80526C4
                0x0000000008052724                sub_8052724
                0x0000000008052780                sub_8052780
                0x00000000080527dc                sub_80527DC
                0x0000000008052838                sub_8052838
                0x00000000080528ac                sub_80528AC
                0x0000000008052aa4                sub_8052AA4
                0x0000000008052b84                sub_8052B84
                0x0000000008052c84                sub_8052C84
                0x0000000008052d64                sub_8052D64
                0x0000000008052e40                sub_8052E40
                0x0000000008052ef0                sub_8052EF0
                0x0000000008052f78                sub_8052F78
                0x00000000080530cc                sub_80530CC
                0x000000000805321c                sub_805321C
                0x0000000008053370                sub_8053370
                0x000000000805345c                sub_805345C
                0x0000000008053520                sub_8053520
                0x00000000080535c8                sub_80535C8
                0x00000000080535fc                sub_80535FC
                0x0000000008053674                sub_8053674
                0x00000000080536b0                sub_80536B0
                0x00000000080536d4                sub_80536D4
                0x00000000080536d8                sub_80536D8
                0x00000000080536e4                sub_80536E4
                0x00000000080538bc                sub_80538BC
                0x0000000008053a90                sub_8053A90
                0x0000000008053bac                sub_8053BAC
                0x0000000008053d18                sub_8053D18
                0x0000000008054068                sub_8054068
                0x00000000080541a4                sub_80541A4
                0x00000000080541f0                sub_80541F0
                0x0000000008054238                sub_8054238
                0x000000000805423c                sub_805423C
                0x00000000080543a4                sub_80543A4
                0x0000000008054494                sub_8054494
                0x0000000008054540                sub_8054540
                0x000000000805463c                sub_805463C
                0x00000000080546f8                sub_80546F8
                0x00000000080547dc                sub_80547DC
                0x000000000805488c                sub_805488C
                0x0000000008054954                sub_8054954
                0x00000000080549fc                sub_80549FC
                0x0000000008054a28                sub_8054A28
                0x0000000008054a54                sub_8054A54
                0x0000000008054a80                sub_8054A80
                0x00000000080550f8                sub_80550F8
                0x0000000008055458                sub_8055458
                0x0000000008055730                sub_8055730
                0x0000000008055798                sub_8055798
                0x0000000008055904                sub_8055904
                0x0000000008055998                sub_8055998
                0x0000000008055aa0                sub_8055AA0
                0x0000000008055b18                sub_8055B18
                0x0000000008055c38                sub_8055C38
                0x0000000008055c4c                sub_8055C4C
                0x0000000008055c50                sub_8055C50
                0x0000000008055dd0                sub_8055DD0
                0x0000000008056084                sub_8056084
                0x0000000008056100                sub_8056100
                0x000000000805618c                sub_805618C
                0x0000000008056218                sub_8056218
                0x0000000008056348                sub_8056348
                0x000000000805648c                sub_805648C
                0x00000000080565c4                sub_80565C4
                0x0000000008056714                sub_8056714
                0x000000000805676c                sub_805676C
                0x0000000008056970                sub_8056970
                0x0000000008056ac8                sub_8056AC8
                0x0000000008056cb4                sub_8056CB4
                0x0000000008056ce0                sub_8056CE0
                0x0000000008056d30                sub_8056D30
                0x0000000008056d80                sub_8056D80
                0x0000000008056dd0                sub_8056DD0
                0x0000000008056e24                sub_8056E24
                0x0000000008056e64                sub_8056E64
                0x0000000008056ec4                sub_8056EC4
                0x0000000008056f1c                sub_8056F1C
                0x0000000008056f30                sub_8056F30
                0x0000000008056f54                sub_8056F54
                0x0000000008056f80                sub_8056F80
                0x0000000008056fa0                sub_8056FA0
                0x0000000008056fd0                sub_8056FD0
                0x0000000008056fe4                sub_8056FE4
                0x00000000080573d4                sub_80573D4
                0x0000000008057888                sub_8057888
                0x0000000008057b74                sub_8057B74
                0x0000000008057c3c                sub_8057C3C
                0x0000000008057d30                sub_8057D30
                0x000000000805803c                sub_805803C
                0x0000000008058344                sub_8058344
                0x0000000008058360                sub_8058360
                0x0000000008058830                sub_8058830
                0x00000000080595dc                sub_80595DC
                0x00000000080597dc                sub_80597DC
                0x0000000008059f9c                sub_8059F9C
                0x000000000805a060                sub_805A060
                0x000000000805a54c                sub_805A54C
                0x000000000805a798                sub_805A798
                0x000000000805a9a4                sub_805A9A4
                0x000000000805aaf8                sub_805AAF8
                0x000000000805ac00                sub_805AC00
                0x000000000805acd8                sub_805ACD8
                0x000000000805adf0                sub_805ADF0
                0x000000000805ae84                sub_805AE84
                0x000000000805af24                sub_805AF24
                0x000000000805afc4                sub_805AFC4
                0x000000000805b11c                sub_805B11C
                0x000000000805b1e0                sub_805B1E0
                0x000000000805b324                sub_805B324
                0x000000000805b52c                sub_805B52C
                0x000000000805b694                sub_805B694
                0x000000000805b7e4                sub_805B7E4
                0x000000000805b858                sub_805B858
                0x000000000805b880                sub_805B880
                0x000000000805b8c0                sub_805B8C0
                0x000000000805b930                sub_805B930
                0x000000000805b980                sub_805B980
                0x000000000805b984                sub_805B984
                0x000000000805b9e8                sub_805B9E8
                0x000000000805bb48                sub_805BB48
                0x000000000805bc00                sub_805BC00
                0x000000000805bc60                sub_805BC60
                0x000000000805bc90                sub_805BC90
                0x000000000805bc94                sub_805BC94
                0x000000000805c448                sub_805C448
                0x000000000805c594                sub_805C594
                0x000000000805c6b0                sub_805C6B0
                0x000000000805c740                sub_805C740
                0x000000000805c83c                sub_805C83C
                0x000000000805c8fc                sub_805C8FC
                0x000000000805c900                sub_805C900
                0x000000000805c994                sub_805C994
                0x000000000805d048                sub_805D048
                0x000000000805d4f0                sub_805D4F0
                0x000000000805d684                sub_805D684
                0x000000000805d720                sub_805D720
                0x000000000805d81c                sub_805D81C
                0x000000000805d8ec                sub_805D8EC
                0x000000000805d9e4                sub_805D9E4
                0x000000000805db04                sub_805DB04
                0x000000000805dbf0                sub_805DBF0
                0x000000000805dd10                sub_805DD10
                0x000000000805de0c                sub_805DE0C
                0x000000000805df2c                sub_805DF2C
                0x000000000805e018                sub_805E018
                0x000000000805e1e4                sub_805E1E4
                0x000000000805e1e8                sub_805E1E8
                0x000000000805e400                sub_805E400
                0x000000000805e698                sub_805E698
                0x000000000805e758                sub_805E758
                0x000000000805e888                sub_805E888
                0x000000000805e9b0                sub_805E9B0
                0x000000000805e9b4                sub_805E9B4
                0x000000000805eae8                sub_805EAE8
                0x000000000805f288                sub_805F288
                0x000000000805f950                sub_805F950
                0x000000000805fad4                sub_805FAD4
                0x000000000805fc88                sub_805FC88
                0x000000000805fd54                sub_805FD54
                0x000000000805fdb0                sub_805FDB0
                0x000000000805fde4                sub_805FDE4
                0x000000000805fe48                sub_805FE48
                0x000000000805feac                sub_805FEAC
                0x000000000805ff0c                sub_805FF0C
                0x000000000805ff38                sub_805FF38
                0x0000000008060088                sub_8060088
                0x000000000806012c                sub_806012C
                0x00000000080604ec                sub_80604EC
                0x000000000806070c                sub_806070C
                0x0000000008060874                sub_8060874
                0x0000000008060c84                sub_8060C84
                0x0000000008060c88                sub_8060C88
                0x0000000008060dac                sub_8060DAC
                0x0000000008061144                sub_8061144
                0x00000000080613d0                sub_80613D0
                0x0000000008061480                sub_8061480
                0x000000000806182c                sub_806182C
                0x0000000008061830                sub_8061830
                0x0000000008061894                sub_8061894
                0x0000000008061948                sub_8061948
                0x0000000008061e84                sub_8061E84
                0x0000000008062140                sub_8062140
                0x0000000008062540                sub_8062540
                0x00000000080628a4                sub_80628A4
                0x00000000080629e8                sub_80629E8
                0x0000000008062a80                sub_8062A80
                0x0000000008062b38                sub_8062B38
                0x0000000008062c28                sub_8062C28
                0x0000000008062cb4                sub_8062CB4
                0x0000000008062e18                sub_8062E18
                0x0000000008062ed8                sub_8062ED8
                0x0000000008062edc                sub_8062EDC
                0x0000000008062f90                sub_8062F90
                0x00000000080631e8                sub_80631E8
                0x00000000080632b4                sub_80632B4
                0x00000000080634ec                sub_80634EC
                0x0000000008063638                sub_8063638
                0x0000000008063824                sub_8063824
                0x00000000080638b0                sub_80638B0
                0x0000000008063910                sub_8063910
                0x0000000008063914                sub_8063914
                0x0000000008063918                sub_8063918
                0x0000000008063b8c                sub_8063B8C
                0x0000000008063c4c                sub_8063C4C
                0x0000000008063d0c                sub_8063D0C
                0x0000000008063dcc                sub_8063DCC
                0x0000000008063e8c                sub_8063E8C
                0x00000000080640c8                sub_80640C8
                0x0000000008064244                sub_8064244
                0x00000000080645e4                sub_80645E4
                0x00000000080648d4                sub_80648D4
                0x0000000008064bb4                sub_8064BB4
                0x0000000008064e84                sub_8064E84
                0x0000000008064fa0                sub_8064FA0
                0x0000000008064ff8                sub_8064FF8
                0x0000000008065058                sub_8065058
                0x000000000806515c                sub_806515C
                0x0000000008065258                sub_8065258
                0x0000000008065328                sub_8065328
                0x0000000008065444                sub_8065444
                0x0000000008065538                sub_8065538
                0x000000000806562c                sub_806562C
                0x00000000080656a4                sub_80656A4
                0x000000000806571c                sub_806571C
                0x0000000008065794                sub_8065794
                0x0000000008065810                sub_8065810
                0x0000000008065814                sub_8065814
                0x0000000008065884                sub_8065884
                0x0000000008065f5c                sub_8065F5C
                0x00000000080661a8                sub_80661A8
                0x00000000080662d0                sub_80662D0
                0x000000000806636c                sub_806636C
                0x00000000080663ec                sub_80663EC
                0x0000000008066478                sub_8066478
                0x0000000008066520                sub_8066520
                0x0000000008066628                sub_8066628
                0x00000000080666e0                sub_80666E0
                0x0000000008066768                sub_8066768
                0x00000000080669a0                sub_80669A0
                0x0000000008066a5c                sub_8066A5C
                0x0000000008066acc                sub_8066ACC
                0x0000000008066ba4                sub_8066BA4
                0x0000000008066c78                sub_8066C78
                0x0000000008066d64                sub_8066D64
                0x0000000008066dc8                sub_8066DC8
                0x0000000008066dcc                sub_8066DCC
                0x0000000008066dd0                sub_8066DD0
                0x0000000008066df4                sub_8066DF4
                0x0000000008066e34                sub_8066E34
                0x0000000008066e58                sub_8066E58
                0x0000000008066e5c                sub_8066E5C
                0x0000000008066ebc                sub_8066EBC
                0x0000000008066f14                sub_8066F14
                0x0000000008066f30                sub_8066F30
                0x0000000008066f90                sub_8066F90
                0x0000000008066fdc                sub_8066FDC
                0x0000000008067020                sub_8067020
                0x0000000008067050                sub_8067050
                0x0000000008067054                sub_8067054
                0x0000000008067084                sub_8067084
                0x00000000080670f8                sub_80670F8
                0x00000000080677c4                sub_80677C4
                0x0000000008067824                sub_8067824
                0x0000000008067928                sub_8067928
                0x00000000080679e4                sub_80679E4
                0x0000000008067b14                sub_8067B14
                0x0000000008067b9c                sub_8067B9C
                0x0000000008067c24                sub_8067C24
                0x0000000008067e68                sub_8067E68
                0x0000000008067f38                sub_8067F38
                0x0000000008067f9c                sub_8067F9C
                0x0000000008068004                sub_8068004
                0x000000000806806c                sub_806806C
                0x0000000008068148                sub_8068148
                0x0000000008068214                sub_8068214
                0x0000000008068360                sub_8068360
                0x00000000080683d8                sub_80683D8
                0x0000000008068448                sub_8068448
                0x000000000806844c                sub_806844C
                0x00000000080684b4                sub_80684B4
                0x00000000080684f4                sub_80684F4
                0x0000000008068538                sub_8068538
                0x000000000806853c                sub_806853C
                0x000000000806856c                sub_806856C
                0x0000000008068570                sub_8068570
                0x00000000080685c8                sub_80685C8
                0x0000000008068620                sub_8068620
                0x0000000008068624                sub_8068624
                0x0000000008068628                sub_8068628
                0x000000000806862c                sub_806862C
                0x0000000008068688                CreateSpecialStageIntro
                0x00000000080688e4                sub_80688E4
                0x0000000008068948                sub_8068948
                0x0000000008068a78                sub_8068A78
                0x0000000008068b10                sub_8068B10
                0x0000000008068bb0                sub_8068BB0
                0x0000000008068c98                sub_8068C98
                0x0000000008068cd4                sub_8068CD4
                0x0000000008068d0c                sub_8068D0C
                0x0000000008069100                sub_8069100
                0x00000000080693d0                sub_80693D0
                0x0000000008069464                sub_8069464
                0x00000000080694e8                sub_80694E8
                0x000000000806954c                sub_806954C
                0x0000000008069550                sub_8069550
                0x0000000008069598                sub_8069598
                0x000000000806959c                sub_806959C
                0x00000000080695e8                sub_80695E8
                0x0000000008069634                sub_8069634
                0x000000000806968c                sub_806968C
                0x0000000008069710                sub_8069710
                0x00000000080698f4                sub_80698F4
                0x0000000008069964                sub_8069964
                0x0000000008069994                sub_8069994
                0x0000000008069c94                sub_8069C94
                0x0000000008069e50                sub_8069E50
                0x0000000008069ee4                sub_8069EE4
                0x0000000008069fdc                sub_8069FDC
                0x000000000806a02c                sub_806A02C
                0x000000000806a124                sub_806A124
                0x000000000806a150                sub_806A150
                0x000000000806a1a4                sub_806A1A4
                0x000000000806a400                sub_806A400
                0x000000000806a508                sub_806A508
                0x000000000806a5bc                sub_806A5BC
                0x000000000806a66c                sub_806A66C
                0x000000000806a680                sub_806A680
                0x000000000806a68c                sub_806A68C
                0x000000000806a698                sub_806A698
                0x000000000806a6dc                sub_806A6DC
                0x000000000806aa44                sub_806AA44
                0x000000000806abd4                sub_806ABD4
                0x000000000806ad44                sub_806AD44
                0x000000000806af04                sub_806AF04
                0x000000000806af58                sub_806AF58
                0x000000000806afa4                sub_806AFA4
                0x000000000806b290                sub_806B290
                0x000000000806b534                sub_806B534
                0x000000000806b5a4                sub_806B5A4
                0x000000000806b620                sub_806B620
                0x000000000806b670                sub_806B670
                0x000000000806b81c                sub_806B81C
                0x000000000806bbc0                Task_806BBC0
                0x000000000806bd24                sub_806BD24
                0x000000000806bdc4                sub_806BDC4
                0x000000000806bf04                sub_806BF04
                0x000000000806bf38                TaskDestructor_806BF38
 build/sa1/asm/enemy_gamigami.o(.text)
 .text          0x000000000806bf78      0x630 build/sa1/asm/enemy_gamigami.o
                0x000000000806bf78                CreateEntity_GamiGami
                0x000000000806c0c0                sub_806C0C0
                0x000000000806c2a4                sub_806C2A4
                0x000000000806c43c                sub_806C43C
                0x000000000806c510                sub_806C510
 build/sa1/asm/enemy_rhinotank.o(.text)
 .text          0x000000000806c5a8      0x784 build/sa1/asm/enemy_rhinotank.o
                0x000000000806c5a8                CreateEntity_Rhinotank
                0x000000000806c6d0                sub_806C6D0
                0x000000000806c9a0                sub_806C9A0
                0x000000000806cbd0                sub_806CBD0
 build/sa1/asm/enemy_kerokero.o(.text)
 .text          0x000000000806cd2c      0x79c build/sa1/asm/enemy_kerokero.o
                0x000000000806cd2c                CreateEntity_KeroKero
                0x000000000806ce68                Task_KeroKero
                0x000000000806d124                sub_806D124
                0x000000000806d2b8                sub_806D2B8
 build/sa1/asm/enemy_hanabii.o(.text)
 .text          0x000000000806d4c8      0x7a8 build/sa1/asm/enemy_hanabii.o
                0x000000000806d4c8                CreateEntity_Hanabii
                0x000000000806d5e8                sub_806D5E8
                0x000000000806d804                sub_806D804
                0x000000000806d9ac                sub_806D9AC
                0x000000000806da80                sub_806DA80
                0x000000000806db60                sub_806DB60
                0x000000000806dc5c                sub_806DC5C
 build/sa1/asm/enemy_pierrot.o(.text)
 .text          0x000000000806dc70      0x3f4 build/sa1/asm/enemy_pierrot.o
                0x000000000806dc70                CreateEntity_Pierrot
                0x000000000806dd80                sub_806DD80
 build/sa1/asm/enemy_slot.o(.text)
 .text          0x000000000806e064      0x92c build/sa1/asm/enemy_slot.o
                0x000000000806e064                CreateEntity_Slot
                0x000000000806e190                sub_806E190
                0x000000000806e374                sub_806E374
                0x000000000806e4e0                sub_806E4E0
                0x000000000806e590                sub_806E590
                0x000000000806e7e0                sub_806E7E0
 build/sa1/asm/enemy_leon.o(.text)
 .text          0x000000000806e990      0x750 build/sa1/asm/enemy_leon.o
                0x000000000806e990                CreateEntity_Leon
                0x000000000806eab8                sub_806EAB8
                0x000000000806ed3c                sub_806ED3C
                0x000000000806eea4                sub_806EEA4
 build/sa1/asm/enemy_wamu.o(.text)
 .text          0x000000000806f0e0      0x9d0 build/sa1/asm/enemy_wamu.o
                0x000000000806f0e0                CreateEntity_Wamu
                0x000000000806f2f0                sub_806F2F0
                0x000000000806fa84                sub_806FA84
 build/sa1/asm/enemy_mirror.o(.text)
 .text          0x000000000806fab0      0x624 build/sa1/asm/enemy_mirror.o
                0x000000000806fab0                CreateEntity_Mirror
                0x000000000806fbdc                sub_806FBDC
                0x000000000806fe2c                sub_806FE2C
                0x000000000806ffa8                sub_806FFA8
                0x0000000008070044                sub_8070044
 build/sa1/asm/enemy_oct.o(.text)
 .text          0x00000000080700d4      0x8cc build/sa1/asm/enemy_oct.o
                0x00000000080700d4                CreateEntity_Oct
                0x00000000080701f4                sub_80701F4
                0x000000000807033c                sub_807033C
                0x000000000807051c                sub_807051C
                0x00000000080706f0                sub_80706F0
                0x000000000807085c                sub_807085C
                0x000000000807090c                sub_807090C
 build/sa1/asm/enemy_senbon.o(.text)
 .text          0x00000000080709a0      0x4f4 build/sa1/asm/enemy_senbon.o
                0x00000000080709a0                CreateEntity_Senbon
                0x0000000008070acc                sub_8070ACC
                0x0000000008070cb4                sub_8070CB4
 build/sa1/asm/enemy_fireball.o(.text)
 .text          0x0000000008070e94      0x5ac build/sa1/asm/enemy_fireball.o
                0x0000000008070e94                Task_Fireball
                0x000000000807101c                sub_807101C
                0x0000000008071160                sub_8071160
                0x0000000008071288                sub_8071288
                0x0000000008071344                sub_8071344
                0x00000000080713e8                CreateEntity_Fireball
 build/sa1/asm/enemy_mole.o(.text)
 .text          0x0000000008071440      0x37c build/sa1/asm/enemy_mole.o
                0x0000000008071440                CreateEntity_Mole
                0x0000000008071558                Task_Mole
                0x0000000008071640                sub_8071640
                0x0000000008071734                sub_8071734
 build/sa1/asm/enemy_yukimaru.o(.text)
 .text          0x00000000080717bc     0x1314 build/sa1/asm/enemy_yukimaru.o
                0x00000000080717bc                CreateEntity_Yukimaru
                0x00000000080719b8                sub_80719B8
                0x0000000008071bfc                sub_8071BFC
                0x0000000008071ddc                sub_8071DDC
                0x0000000008071e8c                sub_8071E8C
                0x0000000008071f28                sub_8071F28
                0x0000000008071f44                CreateEntity_Yukimaru_Wall
                0x0000000008072188                sub_8072188
                0x00000000080723c0                sub_80723C0
                0x0000000008072578                sub_8072578
                0x00000000080727b4                sub_80727B4
                0x0000000008072964                sub_8072964
                0x0000000008072a1c                sub_8072A1C
                0x0000000008072ab4                sub_8072AB4
 build/sa1/asm/enemy_drisame.o(.text)
 .text          0x0000000008072ad0      0xa14 build/sa1/asm/enemy_drisame.o
                0x0000000008072ad0                CreateEntity_Drisame
                0x0000000008072be0                sub_8072BE0
                0x0000000008072e68                sub_8072E68
                0x0000000008072f7c                sub_8072F7C
                0x0000000008073270                sub_8073270
                0x0000000008073364                sub_8073364
                0x00000000080734c0                sub_80734C0
 build/sa1/asm/enemy_kuraa.o(.text)
 .text          0x00000000080734e4      0x4b4 build/sa1/asm/enemy_kuraa.o
                0x00000000080734e4                CreateEntity_Kuraa
                0x0000000008073608                sub_8073608
                0x00000000080737a8                sub_80737A8
 build/sa1/asm/enemy_pen.o(.text)
 .text          0x0000000008073998      0x9cc build/sa1/asm/enemy_pen.o
                0x0000000008073998                CreateEntity_PenMk1
                0x0000000008073ac0                Task_PenMk1Main
                0x0000000008073cc4                sub_8073CC4
                0x0000000008073e94                sub_8073E94
                0x0000000008073f84                sub_8073F84
                0x00000000080741e8                sub_80741E8
                0x00000000080742e0                sub_80742E0
 build/sa1/asm/enemy_tentou.o(.text)
 .text          0x0000000008074364      0x998 build/sa1/asm/enemy_tentou.o
                0x0000000008074364                CreateEntity_Tentou
                0x0000000008074510                Task_TentouMain
                0x000000000807473c                Task_807473C
                0x0000000008074928                sub_8074928
                0x0000000008074b80                sub_8074B80
                0x0000000008074c50                sub_8074C50
                0x0000000008074ce8                sub_8074CE8
 build/sa1/asm/ia_trampoline.o(.text)
 .text          0x0000000008074cfc      0x3c4 build/sa1/asm/ia_trampoline.o
                0x0000000008074cfc                CreateEntity_Trampoline
                0x0000000008074e10                Task_Trampoline
                0x0000000008074ecc                Task_Trampoline1
                0x0000000008074fb0                sub_8074FB0
                0x00000000080750ac                TaskDestructor_Trampoline
 build/sa1/asm/ia_bounce_block.o(.text)
 .text          0x00000000080750c0      0x55c build/sa1/asm/ia_bounce_block.o
                0x00000000080750c0                CreateEntity_BounceBlock
                0x00000000080751d8                Task_BounceBlock
                0x00000000080752a4                sub_80752A4
                0x00000000080753d0                sub_80753D0
                0x0000000008075608                TaskDestructor_BounceBlock
 build/sa1/asm/ia_incline_ramp.o(.text)
 .text          0x000000000807561c      0x4d4 build/sa1/asm/ia_incline_ramp.o
                0x000000000807561c                Task_InclineRamp
                0x0000000008075a84                CreateEntity_InclineRamp
 build/sa1/asm/ia_waterfall.o(.text)
 .text          0x0000000008075af0      0xa34 build/sa1/asm/ia_waterfall.o
                0x0000000008075af0                CreateEntity_Waterfall
                0x0000000008075c08                Task_Waterfall0
                0x0000000008075efc                Task_Waterfall1
                0x000000000807650c                TaskDestructor_Waterfall
 build/sa1/asm/ia_shrubbery.o(.text)
 .text          0x0000000008076524      0x41c build/sa1/asm/ia_shrubbery.o
                0x0000000008076524                Task_ShrubberyMain
                0x0000000008076730                CreateShrubberyParticles
                0x0000000008076810                Task_ShrubberyParticles
                0x000000000807689c                CreateEntity_Shrubbery
                0x000000000807692c                TaskDestructor_ShrubberyParticles
 build/sa1/asm/ia_booster.o(.text)
 .text          0x0000000008076940      0xc10 build/sa1/asm/ia_booster.o
                0x0000000008076940                CreateEntity_Booster
                0x0000000008076a4c                CreateEntity_Booster_SlightLeft
                0x0000000008076b58                CreateEntity_Booster_SlightRight
                0x0000000008076c64                CreateEntity_Booster_Wall
                0x0000000008076d70                CreateEntity_Booster_Steep
                0x0000000008076e7c                CreateEntity_Booster_Steep2
                0x0000000008076f88                Task_Booster
                0x000000000807753c                TaskDestructor_Booster
 build/sa1/asm/ia_red_flag.o(.text)
 .text          0x0000000008077550      0xdfc build/sa1/asm/ia_red_flag.o
                0x0000000008077550                CreateEntity_RedFlag
                0x0000000008077674                Task_RedFlag
                0x0000000008077760                sub_8077760
                0x0000000008077918                sub_8077918
                0x00000000080779ec                CreateEntity_WallPole_Left
                0x0000000008077b24                CreateEntity_WallPole_Right
                0x0000000008077c5c                sub_8077C5C
                0x0000000008077d1c                sub_8077D1C
                0x0000000008077e9c                sub_8077E9C
                0x0000000008077fa4                sub_8077FA4
                0x00000000080780b4                sub_80780B4
                0x00000000080781e4                sub_80781E4
                0x0000000008078338                TaskDestructor_RedFlag
 build/sa1/asm/ia_forced_ice_slide.o(.text)
 .text          0x000000000807834c      0x678 build/sa1/asm/ia_forced_ice_slide.o
                0x000000000807834c                CreateEntity_ForcedIceSlide
                0x000000000807847c                Task_ForcedIceSlide
                0x00000000080789b0                TaskDestructor_ForcedIceSlide
 build/sa1/asm/ia_bumpers.o(.text)
 .text          0x00000000080789c4     0x32dc build/sa1/asm/ia_bumpers.o
                0x00000000080789c4                CreateEntity_BumperHexagon
                0x0000000008078af4                Task_BumperHexagon
                0x0000000008078c34                Task_BumperHexagon2
                0x0000000008078da4                sub_8078DA4
                0x0000000008079110                TaskDestructor_BumperHexagon
                0x0000000008079124                CreateEntity_BumperRound_LinearMov
                0x0000000008079298                Task_BumperRound_LinearMov
                0x0000000008079414                sub_8079414
                0x00000000080795c4                sub_80795C4
                0x0000000008079948                CreateEntity_BumperRound_CircularMov
                0x0000000008079a98                Task_BumperRound_CircularMov
                0x0000000008079c64                sub_8079C64
                0x0000000008079e78                sub_8079E78
                0x000000000807a1d0                CreateEntity_BumperTriHorizontal
                0x000000000807a2f8                CreateEntity_BumperTriVertical
                0x000000000807a424                CreateEntity_BumperTriBig
                0x000000000807a564                Task_BumperTriHorizontal
                0x000000000807a660                sub_807A660
                0x000000000807a7c8                Task_BumperTriVertical
                0x000000000807a8c4                sub_807A8C4
                0x000000000807aa28                Task_BumperTriBig
                0x000000000807ab14                sub_807AB14
                0x000000000807ac7c                sub_807AC7C
                0x000000000807b0a0                sub_807B0A0
                0x000000000807b434                sub_807B434
 build/sa1/asm/ia_flipper.o(.text)
 .text          0x000000000807bca0     0x14f0 build/sa1/asm/ia_flipper.o
                0x000000000807bca0                CreateEntity_Flipper
                0x000000000807bdc4                Task_Flipper
                0x000000000807cb28                sub_807CB28
                0x000000000807cbf4                CreateEntity_Flipper_Vertical
                0x000000000807ccfc                sub_807CCFC
                0x000000000807d0b0                sub_807D0B0
                0x000000000807d17c                TaskDestructor_Flipper
 build/sa1/asm/ia_platform_square.o(.text)
 .text          0x000000000807d190     0x18f4 build/sa1/asm/ia_platform_square.o
                0x000000000807d190                CreateEntity_Platform_Square
                0x000000000807d3e8                Task_Platform_Square
                0x000000000807d4ec                sub_807D4EC
                0x000000000807e388                CreateEntity_BarrelOfDoomMini
                0x000000000807e488                Task_BarrelOfDoomMini
                0x000000000807e914                sub_807E914
                0x000000000807ea70                TaskDestructor_Platform_Square
 build/sa1/asm/ia_SEGA_SONIC_letter.o(.text)
 .text          0x000000000807ea84      0x3b0 build/sa1/asm/ia_SEGA_SONIC_letter.o
                0x000000000807ea84                CreateEntity_SEGA_SONIC_Letter
                0x000000000807ebd8                Task_SEGA_SONIC_Letter
                0x000000000807ee20                TaskDestructor_SEGA_SONIC_Letter
 build/sa1/asm/ia_party_balloon.o(.text)
 .text          0x000000000807ee34      0x4b8 build/sa1/asm/ia_party_balloon.o
                0x000000000807ee34                CreateEntity_PartyBalloon
                0x000000000807ef48                Task_PartyBalloon
                0x000000000807f224                Task_PartyBalloon2
                0x000000000807f2d8                TaskDestructor_PartyBalloon
 build/sa1/asm/ia_ship_swing.o(.text)
 .text          0x000000000807f2ec      0x6a0 build/sa1/asm/ia_ship_swing.o
                0x000000000807f2ec                CreateEntity_ShipSwing
                0x000000000807f4f0                Task_ShipSwing
                0x000000000807f968                TaskDestructor_ShipSwing
 build/sa1/asm/ia_platform_spiked.o(.text)
 .text          0x000000000807f98c      0xda4 build/sa1/asm/ia_platform_spiked.o
                0x000000000807f98c                CreateEntity_Platform_Spiked
                0x000000000807fb2c                Task_Platform_Spiked
                0x00000000080805c8                sub_80805C8
                0x000000000808071c                TaskDestructor_Platform_Spiked
 build/sa1/asm/ia_bowl.o(.text)
 .text          0x0000000008080730      0xcc0 build/sa1/asm/ia_bowl.o
                0x0000000008080730                CreateEntity_Bowl
                0x0000000008080864                Task_Bowl
                0x0000000008080b78                Task_Bowl2
                0x0000000008081288                Task_Bowl3
                0x00000000080813dc                TaskDestructor_Bowl
 build/sa1/asm/ia_panel_gate.o(.text)
 .text          0x00000000080813f0      0xdbc build/sa1/asm/ia_panel_gate.o
                0x00000000080813f0                CreateEntity_PanelGate_Vertical
                0x0000000008081500                Task_PanelGate_Vertical
                0x00000000080815f8                Task_PanelGate_Vertical2
                0x0000000008081800                CreateEntity_PanelGate_Horizontal
                0x0000000008081910                Task_PanelGate_Horizontal
                0x0000000008081a08                Task_PanelGate_Horizontal2
                0x0000000008081c04                sub_8081C04
                0x0000000008081f50                sub_8081F50
                0x0000000008082198                TaskDestructor_PanelGate
 build/sa1/asm/ia_marble_track.o(.text)
 .text          0x00000000080821ac     0x1cc8 build/sa1/asm/ia_marble_track.o
                0x00000000080821ac                CreateEntity_MarbleTrack_Dir
                0x0000000008082258                Task_MarbleTrack_Dir
                0x0000000008082880                CreateEntity_MarbleTrack_Unk
                0x0000000008082948                Task_MarbleTrack_Unk
                0x0000000008082ed8                CreateEntity_MarbleTrack_Entrance
                0x0000000008083020                Task_MarbleTrack_Entrance
                0x00000000080836b4                TaskDestructor_MarbleTrack_Entrance
                0x00000000080836c8                CreateEntity_MarbleTrack_Exit
                0x00000000080837f0                Task_MarbleTrack_Exit
                0x0000000008083e60                TaskDestructor_MarbleTrack_Exit
 build/sa1/asm/ia_conveyor_belt.o(.text)
 .text          0x0000000008083e74      0x544 build/sa1/asm/ia_conveyor_belt.o
                0x0000000008083e74                Task_ConveyorBelt
                0x0000000008084184                Task_SlowingSnow
                0x0000000008084330                CreateEntity_ConveyorBelt
 build/sa1/asm/ia_toggle_player_visibility.o(.text)
 .text          0x00000000080843b8      0x210 build/sa1/asm/ia_toggle_player_visibility.o
                0x00000000080843b8                Task_Toggle_PlayerVisibility
                0x0000000008084554                CreateEntity_Toggle_PlayerVisibility
 build/sa1/asm/ia_wall_bumper.o(.text)
 .text          0x00000000080845c8      0x35c build/sa1/asm/ia_wall_bumper.o
                0x00000000080845c8                Task_WallBumper
                0x00000000080848b8                CreateEntity_WallBumper
 build/sa1/asm/ia_teleport_orb.o(.text)
 .text          0x0000000008084924      0x5d8 build/sa1/asm/ia_teleport_orb.o
                0x0000000008084924                CreateEntity_TeleportOrb
                0x00000000080849d0                Task_TeleportOrb
 build/sa1/asm/ia_flipper_small_blue.o(.text)
 .text          0x0000000008084efc      0x66c build/sa1/asm/ia_flipper_small_blue.o
                0x0000000008084efc                CreateEntity_Flipper_SmallBlue
                0x0000000008085038                Task_Flipper_SmallBlue
                0x0000000008085554                TaskDestructor_Flipper_SmallBlue
 build/sa1/asm/ia_carousel.o(.text)
 .text          0x0000000008085568     0x105c build/sa1/asm/ia_carousel.o
                0x0000000008085568                CreateEntity_Carousel
                0x0000000008085700                Task_Carousel
                0x0000000008085bac                Task_Carousel2
                0x0000000008086420                Task_Carousel3
                0x00000000080865a8                TaskDestructor_Carousel
 build/sa1/asm/ia_hook_rail.o(.text)
 .text          0x00000000080865c4     0x10c8 build/sa1/asm/ia_hook_rail.o
                0x00000000080865c4                CreateEntity_HookRail
                0x0000000008086710                Task_HookRail_Type1
                0x0000000008086884                Task_HookRail_Type1_2
                0x0000000008086b4c                Task_HookRail_Type0
                0x0000000008086cc0                Task_HookRail_Type0_2
                0x0000000008087054                Task_HookRail_Shared0
                0x0000000008087104                Task_HookRail_Shared1
                0x00000000080871a4                Task_HookRail_Type2
                0x000000000808730c                Task_HookRail_Type2_0
                0x00000000080875c4                Task_HookRail_Type2_1
                0x0000000008087678                TaskDestructor_HookRail
 build/sa1/asm/ia_swinging_hook.o(.text)
 .text          0x000000000808768c      0xd00 build/sa1/asm/ia_swinging_hook.o
                0x000000000808768c                CreateEntity_SwingingHook
                0x0000000008087938                Task_SwingingHook
                0x0000000008088368                TaskDestructor_SwingingHook
 build/sa1/asm/ia_security_gate.o(.text)
 .text          0x000000000808838c      0x498 build/sa1/asm/ia_security_gate.o
                0x000000000808838c                CreateEntity_SecurityGate
                0x0000000008088468                Task_SecurityGateMain
                0x00000000080885bc                Task_SecurityGate1
                0x00000000080886c4                Task_SecurityGate2
                0x0000000008088810                TaskDestructor_SecurityGateMain
 build/sa1/asm/ia_swing_rope.o(.text)
 .text          0x0000000008088824      0x844 build/sa1/asm/ia_swing_rope.o
                0x0000000008088824                Task_SwingRope
                0x0000000008088fe8                CreateEntity_SwingRope
 build/sa1/asm/ia_steam_exhaust.o(.text)
 .text          0x0000000008089068      0x9c8 build/sa1/asm/ia_steam_exhaust.o
                0x0000000008089068                CreateEntity_SteamExhaust
                0x00000000080891c8                Task_SteamExhaust
                0x0000000008089504                Task_SteamExhaust2
                0x0000000008089a14                TaskDestructor_SteamExhaust
 build/sa1/asm/ia_crane_claw_lift.o(.text)
 .text          0x0000000008089a30     0x1840 build/sa1/asm/ia_crane_claw_lift.o
                0x0000000008089a30                CreateEntity_CraneClaw
                0x0000000008089bf0                Task_CraneClawMain
                0x0000000008089de0                sub_8089DE0
                0x0000000008089fb4                sub_8089FB4
                0x000000000808a1b4                sub_808A1B4
                0x000000000808a394                sub_808A394
                0x000000000808a4b4                sub_808A4B4
                0x000000000808a5f0                sub_808A5F0
                0x000000000808a78c                sub_808A78C
                0x000000000808a900                CreateEntity_Lift
                0x000000000808aa60                sub_808AA60
                0x000000000808ac48                sub_808AC48
                0x000000000808ae60                sub_808AE60
                0x000000000808b064                sub_808B064
                0x000000000808b230                TaskDestructor_CraneClaw
                0x000000000808b254                TaskDestructor_808B254
 build/sa1/asm/ia_moving_spring.o(.text)
 .text          0x000000000808b270      0xa20 build/sa1/asm/ia_moving_spring.o
                0x000000000808b270                CreateEntity_MovingSpring
                0x000000000808b428                Task_MovingSpringMain
                0x000000000808b5ac                sub_808B5AC
                0x000000000808b7a0                sub_808B7A0
                0x000000000808bb44                sub_808BB44
                0x000000000808bc7c                TaskDestructor_MovingSpring
 build/sa1/asm/ia_iron_ball.o(.text)
 .text          0x000000000808bc90      0x3a8 build/sa1/asm/ia_iron_ball.o
                0x000000000808bc90                CreateEntity_IronBall
                0x000000000808be08                Task_IronBallMain
                0x000000000808c024                TaskDestructor_IronBall
 build/sa1/asm/ia_hang_bar.o(.text)
 .text          0x000000000808c038      0x77c build/sa1/asm/ia_hang_bar.o
                0x000000000808c038                Task_HangBar
                0x000000000808c748                CreateEntity_HangBar
 build/sa1/asm/ia_084.o(.text)
 .text          0x000000000808c7b4     0x169c build/sa1/asm/ia_084.o
                0x000000000808c7b4                CreateEntity_SkatingStone
                0x000000000808c920                Task_SkatingStoneMain
                0x000000000808cc68                sub_808CC68
                0x000000000808d9e4                sub_808D9E4
                0x000000000808db9c                sub_808DB9C
                0x000000000808de18                TaskDestructor_SkatingStone
                0x000000000808de34                TaskDestructors_808DE34
 build/sa1/asm/ia_085_089.o(.text)
 .text          0x000000000808de50      0x92c build/sa1/asm/ia_085_089.o
                0x000000000808de50                CreateEntity_Interactable085
                0x000000000808dfe0                sub_808DFE0
                0x000000000808e398                CreateEntity_Interactable089
                0x000000000808e4f4                sub_808E4F4
                0x000000000808e768                TaskDestructor_Interactable085
 build/sa1/asm/ia_run_wheel.o(.text)
 .text          0x000000000808e77c      0x94c build/sa1/asm/ia_run_wheel.o
                0x000000000808e77c                CreateEntity_RunWheel
                0x000000000808e8a0                Task_RunWheel
                0x000000000808ea80                sub_808EA80
                0x000000000808ec84                sub_808EC84
                0x000000000808f0b4                TaskDestructor_RunWheel
 build/sa1/asm/ia_torch.o(.text)
 .text          0x000000000808f0c8      0x1c0 build/sa1/asm/ia_torch.o
                0x000000000808f0c8                CreateEntity_Torch
                0x000000000808f1ec                Task_TorchMain
                0x000000000808f274                TaskDestructor_Torch
 build/sa1/asm/ia_toggle_player_float.o(.text)
 .text          0x000000000808f288      0x51c build/sa1/asm/ia_toggle_player_float.o
                0x000000000808f288                Task_PlayerFloatMain
                0x000000000808f710                CreateEntity_PlayerFloat
 build/sa1/asm/ia_ferris_wheel.o(.text)
 .text          0x000000000808f7a4      0x6cc build/sa1/asm/ia_ferris_wheel.o
                0x000000000808f7a4                CreateEntity_FerrisWheel
                0x000000000808f9ac                Task_FerrisWheel
                0x000000000808fe5c                TaskDestructor_FerrisWheel
 build/sa1/asm/ia_boulder_spawner.o(.text)
 .text          0x000000000808fe70      0x96c build/sa1/asm/ia_boulder_spawner.o
                0x000000000808fe70                Task_BoulderSpawnerMain
                0x0000000008090028                Task_BoulderMain
                0x0000000008090334                sub_8090334
                0x00000000080904f8                Task_BoulderPieces
                0x0000000008090740                CreateEntity_BoulderSpawner
                0x00000000080907ac                TaskDestructor_Boulder
                0x00000000080907c0                TaskDestructor_BoulderPieces
 build/sa1/asm/ia_spiked_barrel.o(.text)
 .text          0x00000000080907dc      0x628 build/sa1/asm/ia_spiked_barrel.o
                0x00000000080907dc                CreateEntity_SpikedBarrel
                0x000000000809096c                Task_SpikedBarrel
                0x0000000008090df0                TaskDestructor_SpikedBarrel
 build/sa1/asm/ia_air_bubbles.o(.text)
 .text          0x0000000008090e04      0x8fc build/sa1/asm/ia_air_bubbles.o
                0x0000000008090e04                CreateEntity_AirBubbles
                0x0000000008090f08                Task_AirBubbles
                0x0000000008091034                sub_8091034
                0x0000000008091118                sub_8091118
                0x000000000809141c                sub_809141C
                0x00000000080914f8                sub_80914F8
                0x00000000080915f0                sub_80915F0
                0x00000000080916c8                TaskDestructor_AirBubbles
                0x00000000080916dc                TaskDestructor_80916DC
 build/sa1/asm/ia_ice_block.o(.text)
 .text          0x0000000008091700      0xb1c build/sa1/asm/ia_ice_block.o
                0x0000000008091700                CreateEntity_IceBlock
                0x00000000080917f0                Task_IceBlock
                0x0000000008091a78                sub_8091A78
                0x0000000008091c40                Task_IceBlockShards
                0x0000000008091e88                sub_8091E88
                0x0000000008092200                TaskDestructor_IceBlockShards
 build/sa1/asm/ia_096.o(.text)
 .text          0x000000000809221c      0x238 build/sa1/asm/ia_096.o
                0x000000000809221c                Task_Interactable096
                0x00000000080923e8                CreateEntity_Interactable096
 build/sa1/asm/ia_097.o(.text)
 .text          0x0000000008092454      0x1ac build/sa1/asm/ia_097.o
                0x0000000008092454                CreateEntity_Interactable097
                0x0000000008092564                Task_Interactable097
                0x00000000080925ec                TaskDestructor_Interactable097
 build/sa1/asm/ia_underwater_lava_platform.o(.text)
 .text          0x0000000008092600      0x930 build/sa1/asm/ia_underwater_lava_platform.o
                0x0000000008092600                CreateEntity_UnderwaterLavaPlatform
                0x0000000008092760                Task_UnderwaterLavaPlatform
                0x00000000080929a0                sub_80929A0
                0x0000000008092f14                TaskDestructor_UnderwaterLavaPlatform
 build/sa1/asm/ia_099.o(.text)
 .text          0x0000000008092f30      0x290 build/sa1/asm/ia_099.o
                0x0000000008092f30                CreateEntity_Interactable099
                0x00000000080930e0                Task_Interactable099
                0x00000000080931ac                TaskDestructor_Interactable099
 build/sa1/asm/ia_special_spring.o(.text)
 .text          0x00000000080931c0      0x558 build/sa1/asm/ia_special_spring.o
                0x00000000080931c0                CreateEntity_SpecialSpring
                0x00000000080932bc                Task_SpecialSpringMain
                0x00000000080934f4                sub_80934F4
                0x0000000008093704                TaskDestructor_SpecialSpring
 build/sa1/asm/ia_spiked_barrel_chaohunt.o(.text)
 .text          0x0000000008093718      0x190 build/sa1/asm/ia_spiked_barrel_chaohunt.o
                0x0000000008093718                CreateEntity_SpikedBarrel_ChaoHunt
                0x000000000809380c                Task_SpikedBarrel_ChaoHunt
                0x0000000008093894                TaskDestructor_SpikedBarrel_ChaoHunt
 build/sa1/asm/ia_small_fall_block.o(.text)
 .text          0x00000000080938a8      0x6b8 build/sa1/asm/ia_small_fall_block.o
                0x00000000080938a8                CreateEntity_SmallFallBlock
                0x00000000080939b0                Task_SmallFallBlockMain
                0x0000000008093b88                Task_SmallFallBlock1
                0x0000000008093d88                Task_SmallFallBlock2
                0x0000000008093f4c                TaskDestructor_SmallFallBlock
 build/sa1/asm/ia_lava.o(.text)
 .text          0x0000000008093f60      0x2d4 build/sa1/asm/ia_lava.o
                0x0000000008093f60                Task_Lava
                0x0000000008094194                CreateEntity_Lava
 build/sa1/asm/ia_track.o(.text)
 .text          0x0000000008094234      0x784 build/sa1/asm/ia_track.o
                0x0000000008094234                CreateEntity_Track
                0x0000000008094308                Task_Track
 build/sa1/asm/ia_107.o(.text)
 .text          0x00000000080949b8      0x618 build/sa1/asm/ia_107.o
                0x00000000080949b8                CreateEntity_Interactable107
                0x0000000008094a4c                Task_Interactable107
 build/sa1/asm/ia_spring_hiding.o(.text)
 .text          0x0000000008094fd0      0x4cc build/sa1/asm/ia_spring_hiding.o
                0x0000000008094fd0                CreateEntity_Spring_Hiding
                0x00000000080950c4                Task_Spring_Hiding
                0x0000000008095158                sub_8095158
                0x0000000008095224                sub_8095224
                0x0000000008095488                TaskDestructor_Spring_Hiding
 build/sa1/asm/ia_109.o(.text)
 .text          0x000000000809549c      0x270 build/sa1/asm/ia_109.o
                0x000000000809549c                Task_Interactable109
                0x0000000008095678                CreateEntity_Interactable109
 build/sa1/asm/ia_pipe.o(.text)
 .text          0x000000000809570c     0x11a8 build/sa1/asm/ia_pipe.o
                0x000000000809570c                CreateEntity_PipeEntrance
                0x00000000080959ac                Task_PipeEntrance
                0x0000000008095d28                sub_8095D28
                0x0000000008095e90                sub_8095E90
                0x0000000008096104                TaskDestructor_PipeEntrance
                0x0000000008096128                CreateEntity_PipeExit
                0x00000000080963a0                Task_PipeExit
                0x000000000809656c                sub_809656C
                0x0000000008096724                sub_8096724
                0x0000000008096890                TaskDestructor_PipeExit
 build/sa1/asm/ia_track_air_corner.o(.text)
 .text          0x00000000080968b4      0x26c build/sa1/asm/ia_track_air_corner.o
                0x00000000080968b4                CreateEntity_TrackAirCorner
                0x00000000080969c8                Task_TrackAirCorner
 build/sa1/asm/ia_113.o(.text)
 .text          0x0000000008096b20      0x278 build/sa1/asm/ia_113.o
                0x0000000008096b20                Task_Interactable113
                0x0000000008096d2c                CreateEntity_Interactable113
 build/sa1/asm/m4a0.o(.text)
 .text          0x0000000008096d98      0xc1c build/sa1/asm/m4a0.o
                0x0000000008096d98                umul3232H32
                0x0000000008096d9c                __umul3232H32
                0x0000000008096da8                SoundMain
                0x0000000008096e2c                SoundMainRAM
                0x0000000008096e38                sub_08096E38
                0x0000000008096e8c                sub_08096E8C
                0x0000000008096eba                sub_08096EBA
                0x0000000008096fc4                sub_08096FC4
                0x00000000080971ac                sub_080971AC
                0x00000000080971ca                sub_80971CA
                0x00000000080971d0                SoundMainBTM
                0x00000000080971e8                RealClearChain
                0x0000000008097208                ply_fine
                0x0000000008097238                MPlayJumpTableCopy
                0x0000000008097250                sub_8097250
                0x000000000809726c                sub_809726C
                0x000000000809726e                sub_809726E
                0x0000000008097278                ply_goto
                0x0000000008097298                ply_patt
                0x00000000080972b4                ply_pend
                0x00000000080972c8                ply_rept
                0x00000000080972f8                ply_prio
                0x0000000008097304                ply_tempo
                0x0000000008097318                ply_keysh
                0x000000000809732c                ply_voice
                0x000000000809735c                ply_vol
                0x0000000008097370                ply_pan
                0x0000000008097384                ply_bend
                0x0000000008097398                ply_bendr
                0x00000000080973ac                ply_lfodl
                0x00000000080973b8                ply_modt
                0x00000000080973d0                ply_tune
                0x00000000080973e4                ply_port
                0x00000000080973fc                sub_80973FC
                0x0000000008097448                MPlayMain
                0x00000000080976a0                sub_80976A0
                0x00000000080976b0                TrackStop
                0x00000000080976f4                sub_80976F4
                0x0000000008097724                ply_note
                0x0000000008097924                ply_endtie
                0x0000000008097964                sub_8097964
                0x0000000008097980                sub_8097980
                0x000000000809798c                ply_lfos
                0x00000000080979a0                ply_mod
 build/sa1/src/lib/m4a/m4a.o(.text)
 .text          0x00000000080979b4     0x1598 build/sa1/src/lib/m4a/m4a.o
                0x00000000080979b4                MidiKeyToFreq
                0x0000000008097a1c                MPlayContinue
                0x0000000008097a38                MPlayFadeOut
                0x0000000008097a58                m4aSoundInit
                0x0000000008097ad0                m4aSoundMain
                0x0000000008097adc                m4aSongNumStart
                0x0000000008097b08                m4aSongNumStartOrChange
                0x0000000008097b54                m4aSongNumStartOrContinue
                0x0000000008097ba8                m4aSongNumStop
                0x0000000008097bdc                m4aSongNumContinue
                0x0000000008097c10                m4aMPlayAllStop
                0x0000000008097c3c                m4aMPlayContinue
                0x0000000008097c48                m4aMPlayAllContinue
                0x0000000008097c74                m4aMPlayFadeOut
                0x0000000008097c84                m4aMPlayFadeOutTemporarily
                0x0000000008097ca4                m4aMPlayFadeIn
                0x0000000008097ccc                m4aMPlayImmInit
                0x0000000008097d14                MPlayExtender
                0x0000000008097e2c                MusicPlayerJumpTableCopy
                0x0000000008097e30                ClearChain
                0x0000000008097e44                Clear64byte
                0x0000000008097e58                SoundInit
                0x0000000008097f50                SampleFreqSet
                0x0000000008097ff4                m4aSoundMode
                0x000000000809808c                SoundClear
                0x00000000080980e0                m4aSoundVSyncOff
                0x000000000809815c                m4aSoundVSyncOn
                0x0000000008098198                MPlayOpen
                0x0000000008098210                MPlayStart
                0x00000000080982f4                MPlayStop
                0x0000000008098334                FadeOutBody
                0x00000000080983fc                TrkVolPitSet
                0x00000000080984b0                MidiKeyToCgbFreq
                0x0000000008098558                CgbOscOff
                0x00000000080985a8                CgbModVol
                0x0000000008098610                CgbSound
                0x0000000008098a5c                m4aMPlayTempoControl
                0x0000000008098a84                m4aMPlayVolumeControl
                0x0000000008098aec                m4aMPlayPitchControl
                0x0000000008098b60                m4aMPlayPanpotControl
                0x0000000008098bc8                ClearModM
                0x0000000008098be8                m4aMPlayModDepthSet
                0x0000000008098c5c                m4aMPlayLFOSpeedSet
                0x0000000008098cd0                ply_memacc
                0x0000000008098e28                ply_xcmd
                0x0000000008098e48                ply_xxx
                0x0000000008098e5c                ply_xwave
                0x0000000008098ea4                ply_xtype
                0x0000000008098eb8                ply_xatta
                0x0000000008098ecc                ply_xdeca
                0x0000000008098ee0                ply_xsust
                0x0000000008098ef4                ply_xrele
                0x0000000008098f08                ply_xiecv
                0x0000000008098f14                ply_xiecl
                0x0000000008098f20                ply_xleng
                0x0000000008098f34                ply_xswee
 build/sa1/src/lib/agb_flash/agb_flash.o(.text)
 .text          0x0000000008098f4c      0x580 build/sa1/src/lib/agb_flash/agb_flash.o
                0x0000000008098f4c                ReadFlashId
                0x0000000008098fe4                IdentifyFlash
                0x0000000008099078                FlashTimerIntr
                0x000000000809909c                SetFlashTimerIntr
                0x00000000080990d4                StartFlashTimer
                0x000000000809917c                StopFlashTimer
                0x00000000080991c0                ReadFlash1
                0x00000000080991c4                SetReadFlash1
                0x00000000080991fc                WaitForFlashWrite512K_Common
                0x0000000008099288                ReadFlash_Core
                0x00000000080992ac                ReadFlash
                0x0000000008099328                VerifyFlashSector_Core
                0x0000000008099358                VerifyFlashSector
                0x00000000080993cc                VerifyFlashSectorNBytes
                0x0000000008099440                ProgramFlashSectorAndVerify
                0x0000000008099484                ProgramFlashSectorAndVerifyNBytes
 build/sa1/src/lib/agb_flash/agb_flash_le_512k.o(.text)
 .text          0x00000000080994cc      0x2a8 build/sa1/src/lib/agb_flash/agb_flash_le_512k.o
                0x00000000080994cc                EraseFlashChip_LE
                0x0000000008099540                EraseFlashSector_LE
                0x00000000080995dc                ProgramByte
                0x0000000008099614                ProgramFlashSector_LE
 build/sa1/src/lib/agb_flash/agb_flash_mx_512k.o(.text)
 .text          0x0000000008099774       0xa4 build/sa1/src/lib/agb_flash/agb_flash_mx_512k.o
                0x0000000008099774                ProgramFlashSector_MX
 build/sa1/src/lib/agb_flash/agb_flash_at_512k.o(.text)
 .text          0x0000000008099818      0x2b8 build/sa1/src/lib/agb_flash/agb_flash_at_512k.o
                0x0000000008099818                EraseFlashChip_AT
                0x0000000008099888                EraseFlashSector_AT_2
                0x000000000809990c                EraseFlashSector_AT
                0x0000000008099998                ProgramFlashSector_AT_2
                0x0000000008099a10                ProgramFlashSector_AT
 build/sa1/asm/libagbsyscall.o(.text)
 .text          0x0000000008099ad0       0x6c build/sa1/asm/libagbsyscall.o
                0x0000000008099ad0                ArcTan2
                0x0000000008099ad4                CpuFastSet
                0x0000000008099ad8                CpuSet
                0x0000000008099adc                Div
                0x0000000008099ae0                Mod
                0x0000000008099ae8                LZ77UnCompWram
                0x0000000008099aec                MultiBoot
                0x0000000008099af4                RLUnCompWram
                0x0000000008099af8                SoftReset
                0x0000000008099b10                Sqrt
                0x0000000008099b14                VBlankIntrWait
                0x0000000008099b1c                SoftResetExram
 *libgcc.a:_call_via_rX.o(.text)
 .text          0x0000000008099b3c       0x3c tools/agbcc/lib/libgcc.a(_call_via_rX.o)
                0x0000000008099b3c                _call_via_r0
                0x0000000008099b40                _call_via_r1
                0x0000000008099b44                _call_via_r2
                0x0000000008099b48                _call_via_r3
                0x0000000008099b4c                _call_via_r4
                0x0000000008099b50                _call_via_r5
                0x0000000008099b54                _call_via_r6
                0x0000000008099b58                _call_via_r7
                0x0000000008099b5c                _call_via_r8
                0x0000000008099b60                _call_via_r9
                0x0000000008099b64                _call_via_sl
                0x0000000008099b68                _call_via_fp
                0x0000000008099b6c                _call_via_ip
                0x0000000008099b70                _call_via_sp
                0x0000000008099b74                _call_via_lr
 *libgcc.a:_divdi3.o(.text)
 *libgcc.a:_divsi3.o(.text)
 .text          0x0000000008099b78       0x94 tools/agbcc/lib/libgcc.a(_divsi3.o)
                0x0000000008099b78                __divsi3
 *libgcc.a:_dvmd_tls.o(.text)
 .text          0x0000000008099c0c        0x4 tools/agbcc/lib/libgcc.a(_dvmd_tls.o)
                0x0000000008099c0c                __div0
 *libgcc.a:_modsi3.o(.text)
 .text          0x0000000008099c10       0xd0 tools/agbcc/lib/libgcc.a(_modsi3.o)
                0x0000000008099c10                __modsi3
 *libgcc.a:_udivsi3.o(.text)
 .text          0x0000000008099ce0       0x78 tools/agbcc/lib/libgcc.a(_udivsi3.o)
                0x0000000008099ce0                __udivsi3
 *libgcc.a:_umodsi3.o(.text)
 .text          0x0000000008099d58       0xc0 tools/agbcc/lib/libgcc.a(_umodsi3.o)
                0x0000000008099d58                __umodsi3
 *libgcc.a:dp-bit.o(.text)
 .text          0x0000000008099e18      0xd9c tools/agbcc/lib/libgcc.a(dp-bit.o)
                0x0000000008099e18                __pack_d
                0x0000000008099f60                __unpack_d
                0x000000000809a2a4                __adddf3
                0x000000000809a2d4                __subdf3
                0x000000000809a30c                __muldf3
                0x000000000809a5b4                __divdf3
                0x000000000809a73c                __fpcmp_parts_d
                0x000000000809a83c                __cmpdf2
                0x000000000809a868                __eqdf2
                0x000000000809a8b4                __nedf2
                0x000000000809a900                __gtdf2
                0x000000000809a94c                __gedf2
                0x000000000809a998                __ltdf2
                0x000000000809a9e4                __ledf2
                0x000000000809aa30                __floatsidf
                0x000000000809aaac                __fixdfsi
                0x000000000809ab20                __negdf2
                0x000000000809ab48                __make_dp
                0x000000000809ab70                __truncdfsf2
 *libgcc.a:fp-bit.o(.text)
 .text          0x000000000809abb4      0x94c tools/agbcc/lib/libgcc.a(fp-bit.o)
                0x000000000809abb4                __pack_f
                0x000000000809ac6c                __unpack_f
                0x000000000809ae64                __addsf3
                0x000000000809ae90                __subsf3
                0x000000000809aec4                __mulsf3
                0x000000000809b028                __divsf3
                0x000000000809b114                __fpcmp_parts_f
                0x000000000809b1f8                __cmpsf2
                0x000000000809b220                __eqsf2
                0x000000000809b268                __nesf2
                0x000000000809b2b0                __gtsf2
                0x000000000809b2f8                __gesf2
                0x000000000809b340                __ltsf2
                0x000000000809b388                __lesf2
                0x000000000809b3d0                __floatsisf
                0x000000000809b430                __fixsfsi
                0x000000000809b498                __negsf2
                0x000000000809b4bc                __make_fp
                0x000000000809b4d4                __extendsfdf2
 *libgcc.a:_lshrdi3.o(.text)
 .text          0x000000000809b500       0x34 tools/agbcc/lib/libgcc.a(_lshrdi3.o)
                0x000000000809b500                __lshrdi3
 *libgcc.a:_muldi3.o(.text)
 .text          0x000000000809b534       0x70 tools/agbcc/lib/libgcc.a(_muldi3.o)
                0x000000000809b534                __muldi3
 *libgcc.a:_negdi2.o(.text)
 .text          0x000000000809b5a4       0x18 tools/agbcc/lib/libgcc.a(_negdi2.o)
                0x000000000809b5a4                __negdi2
 *libgcc.a:_udivsi3.o(.text)
 *libc.a:memcpy.o(.text)
 .text          0x000000000809b5bc       0x60 tools/agbcc/lib/libc.a(memcpy.o)
                0x000000000809b5bc                memcpy
 *libc.a:memset.o(.text)
 .text          0x000000000809b61c       0x54 tools/agbcc/lib/libc.a(memset.o)
                0x000000000809b61c                memset
 build/sa1/data/data_0.o(.rodata)
 .rodata        0x000000000809b670      0xb00 build/sa1/data/data_0.o
                0x000000000809b670                gIntrTableTemplate
                0x000000000809b6a8                spriteUpdateFuncs
                0x000000000809b6b8                animCmdTable_BG
                0x000000000809b6e8                gSineTable
                0x000000000809c0e8                gUnknown_0809C0E8
                0x000000000809c0f0                animCmdTable
                0x000000000809c120                gOamShapesSizes
                0x000000000809c138                gUnknown_0809C138
 build/sa1/data/chao_garden.o(.rodata)
 .rodata        0x000000000809c170    0x1edd4 build/sa1/data/chao_garden.o
                0x000000000809c170                gMultiBootProgram_TinyChaoGarden
 build/sa1/src/data/entity_tables.o(.rodata)
 .rodata        0x00000000080baf44      0x120 build/sa1/src/data/entity_tables.o
                0x00000000080baf44                gSpritePosData_rings
                0x00000000080baf8c                gSpritePosData_interactables
                0x00000000080bafd4                gSpritePosData_itemboxes
                0x00000000080bb01c                gSpritePosData_enemies
 build/sa1/data/data_0_1.o(.rodata)
 .rodata        0x00000000080bb064      0x584 build/sa1/data/data_0_1.o
                0x00000000080bb064                gSpriteInits_Interactables
                0x00000000080bb234                gSpriteInits_Enemies
                0x00000000080bb2b4                enemyDefeatScores
                0x00000000080bb2c0                gSpriteInits_InteractablesMultiplayer
                0x00000000080bb308                gUnknown_080BB308
                0x00000000080bb310                gUnknown_080BB310
                0x00000000080bb314                gUnknown_080BB314
                0x00000000080bb31e                gUnknown_080BB31E
                0x00000000080bb323                gUnknown_080BB323
                0x00000000080bb327                gUnknown_080BB327
                0x00000000080bb32c                gUnknown_080BB32C
                0x00000000080bb33c                gUnknown_080BB33C
                0x00000000080bb340                gUnknown_080BB340
                0x00000000080bb348                gUnknown_080BB348
                0x00000000080bb34c                gUnknown_080BB34C
                0x00000000080bb350                gUnknown_080BB350
                0x00000000080bb354                gUnknown_080BB354
                0x00000000080bb35c                gUnknown_080BB35C
                0x00000000080bb360                gUnknown_080BB360
                0x00000000080bb364                gUnknown_080BB364
                0x00000000080bb36c                gUnknown_080BB36C
                0x00000000080bb370                gUnknown_080BB370
                0x00000000080bb378                gUnknown_080BB378
                0x00000000080bb37c                gUnknown_080BB37C
                0x00000000080bb37e                gUnknown_080BB37E
                0x00000000080bb380                gUnknown_080BB380
                0x00000000080bb382                gUnknown_080BB382
                0x00000000080bb38a                gUnknown_080BB38A
                0x00000000080bb38e                gUnknown_080BB38E
                0x00000000080bb3a0                gUnknown_080BB3A0
                0x00000000080bb3c0                gUnknown_080BB3C0
                0x00000000080bb3c4                gUnknown_080BB3C4
                0x00000000080bb3c7                gUnknown_080BB3C7
                0x00000000080bb3ca                gUnknown_080BB3CA
                0x00000000080bb3d0                gUnknown_080BB3D0
                0x00000000080bb3dc                gUnknown_080BB3DC
                0x00000000080bb3e0                gUnknown_080BB3E0
                0x00000000080bb3f8                gUnknown_080BB3F8
                0x00000000080bb41c                gUnknown_080BB41C
                0x00000000080bb42c                gUnknown_080BB42C
                0x00000000080bb434                gUnknown_080BB434
                0x00000000080bb43c                gUnknown_080BB43C
                0x00000000080bb45c                gUnknown_080BB45C
                0x00000000080bb484                gUnknown_080BB484
                0x00000000080bb488                gUnknown_080BB488
                0x00000000080bb48c                gUnknown_080BB48C
                0x00000000080bb490                gUnknown_080BB490
                0x00000000080bb494                gUnknown_080BB494
                0x00000000080bb4d0                gUnknown_080BB4D0
                0x00000000080bb4d4                gUnknown_080BB4D4
                0x00000000080bb4d8                gUnknown_080BB4D8
                0x00000000080bb4e8                gUnknown_080BB4E8
                0x00000000080bb4f0                gUnknown_080BB4F0
                0x00000000080bb4f4                gUnknown_080BB4F4
                0x00000000080bb4fc                gUnknown_080BB4FC
                0x00000000080bb520                gUnknown_080BB520
                0x00000000080bb544                gUnknown_080BB544
                0x00000000080bb568                gUnknown_080BB568
 build/sa1/src/data/tilemap_data_0.o(.rodata)
 .rodata        0x00000000080bb5e8    0x20b88 build/sa1/src/data/tilemap_data_0.o
                0x00000000080bb5e8                Palette_tilemap_73
                0x00000000080bb7e8                Tiles_tilemap_73
                0x00000000080beba8                Tilemap_tilemap_73
                0x00000000080bec98                tilemap_73
                0x00000000080becb4                Palette_tilemap_74
                0x00000000080beeb4                Tiles_tilemap_74
                0x00000000080c2634                Tilemap_tilemap_74
                0x00000000080c2724                tilemap_74
                0x00000000080c2740                Palette_tilemap_75
                0x00000000080c2940                Tiles_tilemap_75
                0x00000000080cac80                Tilemap_tilemap_75
                0x00000000080cb130                tilemap_75
                0x00000000080cb14c                Palette_mp_choose_pak_type_jp
                0x00000000080cb34c                Tiles_mp_choose_pak_type_jp
                0x00000000080cbb4c                Tilemap_mp_choose_pak_type_jp
                0x00000000080cbffc                mp_choose_pak_type_jp
                0x00000000080cc018                Palette_mp_choose_pak_type_en
                0x00000000080cc218                Tiles_mp_choose_pak_type_en
                0x00000000080cce18                Tilemap_mp_choose_pak_type_en
                0x00000000080cd2c8                mp_choose_pak_type_en
                0x00000000080cd2e4                Palette_mp_connection_success
                0x00000000080cd4e4                Tiles_mp_connection_success
                0x00000000080ce8e4                Tilemap_mp_connection_success
                0x00000000080ced94                mp_connection_success
                0x00000000080cedb0                Palette_mp_connection_error
                0x00000000080cefb0                Tiles_mp_connection_error
                0x00000000080d03b0                Tilemap_mp_connection_error
                0x00000000080d0860                mp_connection_error
                0x00000000080d087c                Palette_mp_continue_screen
                0x00000000080d0a7c                Tiles_mp_continue_screen
                0x00000000080d0c7c                Tilemap_mp_continue_screen
                0x00000000080d112c                mp_continue_screen
                0x00000000080d1148                Palette_mp_team_play_screen
                0x00000000080d1348                Tiles_mp_team_play_screen
                0x00000000080d1548                Tilemap_mp_team_play_screen
                0x00000000080d19f8                mp_team_play_screen
                0x00000000080d1a14                Palette_mp_vs_background
                0x00000000080d1c14                Tiles_mp_vs_background
                0x00000000080d2014                Tilemap_mp_vs_background
                0x00000000080d2814                mp_vs_background
                0x00000000080d2830                Palette_tilemap_85
                0x00000000080d2a30                Tiles_tilemap_85
                0x00000000080d3230                Tilemap_tilemap_85
                0x00000000080d36e0                tilemap_85
                0x00000000080d36fc                Palette_tilemap_84
                0x00000000080d38fc                Tiles_tilemap_84
                0x00000000080d40fc                Tilemap_tilemap_84
                0x00000000080d45ac                tilemap_84
                0x00000000080d45c8                Palette_tilemap_unused_mp_player_bar
                0x00000000080d47c8                Tiles_tilemap_unused_mp_player_bar
                0x00000000080d49c8                Tilemap_tilemap_unused_mp_player_bar
                0x00000000080d4af4                tilemap_unused_mp_player_bar
                0x00000000080d4b10                Palette_tilemap_unused_mp_1
                0x00000000080d4d10                Tiles_tilemap_unused_mp_1
                0x00000000080d5110                Tilemap_tilemap_unused_mp_1
                0x00000000080d55c0                tilemap_unused_mp_1
                0x00000000080d55dc                Palette_tilemap_unused_mp_2
                0x00000000080d57dc                Tiles_tilemap_unused_mp_2
                0x00000000080d5fdc                Tilemap_tilemap_unused_mp_2
                0x00000000080d648c                tilemap_unused_mp_2
                0x00000000080d64a8                Palette_tilemap_unused_mp_3
                0x00000000080d66a8                Tiles_tilemap_unused_mp_3
                0x00000000080d6aa8                Tilemap_tilemap_unused_mp_3
                0x00000000080d6f58                tilemap_unused_mp_3
                0x00000000080d6f74                Palette_tilemap_unused_mp_4
                0x00000000080d7174                Tiles_tilemap_unused_mp_4
                0x00000000080d7374                Tilemap_tilemap_unused_mp_4
                0x00000000080d74a0                tilemap_unused_mp_4
                0x00000000080d74bc                Palette_mp_singlepak_program_is_being_sent
                0x00000000080d76bc                Tiles_mp_singlepak_program_is_being_sent
                0x00000000080d8cbc                Tilemap_mp_singlepak_program_is_being_sent
                0x00000000080d9310                mp_singlepak_program_is_being_sent
                0x00000000080d932c                Palette_intro_presented_by_sega
                0x00000000080d952c                Tiles_intro_presented_by_sega
                0x00000000080da52c                Tilemap_intro_presented_by_sega
                0x00000000080da6bc                intro_presented_by_sega
                0x00000000080da6d8                Palette_intro_created_by_sonic_team
                0x00000000080da8d8                Tiles_intro_created_by_sonic_team
                0x00000000080db4d8                Tilemap_intro_created_by_sonic_team
                0x00000000080db668                intro_created_by_sonic_team
                0x00000000080db684                Palette_tilemap_89
                0x00000000080db6a4                Tiles_tilemap_89
                0x00000000080dbca4                Tilemap_tilemap_89
                0x00000000080dc154                tilemap_89
 build/sa1/data/gSpriteTables.o(.rodata)
 .rodata        0x00000000080dc170       0x18 build/sa1/data/gSpriteTables.o
                0x00000000080dc170                gSpriteTables
 build/sa1/data/animations.o(.rodata)
 .rodata        0x00000000080dc188    0x26c24 build/sa1/data/animations.o
                0x0000000008101f7c                gAnimations
 build/sa1/src/data/sprite_dimensions.o(.rodata)
 .rodata        0x0000000008102dac     0xc95c build/sa1/src/data/sprite_dimensions.o
                0x000000000810e8d8                gSpriteDimensions
 build/sa1/src/data/oam_data.o(.rodata)
 .rodata        0x000000000810f708     0xee6c build/sa1/src/data/oam_data.o
                0x000000000811d744                gSpriteOamData
 build/sa1/src/data/obj_palettes.o(.rodata)
 .rodata        0x000000000811e574     0x3a00 build/sa1/src/data/obj_palettes.o
                0x000000000811e574                gObjPalettes
 build/sa1/data/obj_gfx.o(.rodata)
 .rodata        0x0000000008121f74   0x365080 build/sa1/data/obj_gfx.o
                0x0000000008121f74                gObjTiles_4bpp
                0x000000000846c174                gObjTiles_8bpp
 build/sa1/data/data_0_2.o(.rodata)
 .rodata        0x0000000008486ff4     0x59b0 build/sa1/data/data_0_2.o
                0x0000000008486ff4                gUnknown_08486FF4
                0x0000000008487034                gUnknown_08487034
                0x0000000008487074                gUnknown_08487074
                0x00000000084870b4                gUnknown_084870B4
                0x00000000084870f4                gUnknown_084870F4
                0x0000000008487134                gUnknown_08487134
                0x0000000008487140                gUnknown_08487140
                0x000000000848715c                gUnknown_0848715C
                0x0000000008487184                gUnknown_08487184
                0x00000000084871c4                gUnknown_084871C4
                0x0000000008487204                gUnknown_08487204
                0x000000000848720c                gUnknown_0848720C
                0x0000000008487214                gUnknown_08487214
                0x000000000848722c                gUnknown_0848722C
                0x000000000848728c                gUnknown_0848728C
                0x00000000084872c4                gUnknown_084872C4
                0x00000000084872e0                gUnknown_084872E0
                0x0000000008487310                gUnknown_08487310
                0x0000000008487330                gUnknown_08487330
                0x0000000008487358                gUnknown_08487358
                0x0000000008487bbc                gUnknown_08487BBC
                0x000000000848872c                gUnknown_0848872C
                0x0000000008489308                gUnknown_08489308
                0x0000000008489f5c                gUnknown_08489F5C
                0x000000000848adb4                gUnknown_0848ADB4
                0x000000000848ba80                gUnknown_0848BA80
 build/sa1/src/data/tilemaps_special_stage.o(.rodata)
 .rodata        0x000000000848c9a4      0x1dc build/sa1/src/data/tilemaps_special_stage.o
                0x000000000848c9a4                tilemap_54
                0x000000000848c9c0                special_stage_bg_frame_0
                0x000000000848c9dc                special_stage_bg_frame_1
                0x000000000848c9f8                special_stage_bg_frame_2
                0x000000000848ca14                special_stage_bg_frame_3
                0x000000000848ca30                special_stage_bg_frame_4
                0x000000000848ca4c                special_stage_bg_frame_5
                0x000000000848ca68                special_stage_bg_frame_6
                0x000000000848ca84                special_stage_bg_frame_7
                0x000000000848caa0                special_stage_bg_frame_8
                0x000000000848cabc                special_stage_bg_frame_9
                0x000000000848cad8                special_stage_bg_frame_10
                0x000000000848caf4                special_stage_bg_frame_11
                0x000000000848cb10                special_stage_bg_frame_12
                0x000000000848cb2c                special_stage_bg_frame_13
                0x000000000848cb48                special_stage_bg_frame_14
                0x000000000848cb64                special_stage_bg_frame_15
 build/sa1/src/data/tilemaps_special_stage.o(.data)
 .data          0x000000000848cb80    0x20220 build/sa1/src/data/tilemaps_special_stage.o
                0x000000000848cb80                Palette_tilemap_54
                0x000000000848cd80                Tiles_tilemap_54
                0x000000000848ce00                Tilemap_tilemap_54
                0x000000000848d600                Palette_special_stage_bg_frame_0
                0x000000000848d800                Tiles_special_stage_bg_frame_0
                0x000000000848f3e0                Tilemap_special_stage_bg_frame_0
                0x000000000848f5f4                Palette_special_stage_bg_frame_1
                0x000000000848f7f4                Tiles_special_stage_bg_frame_1
                0x00000000084913d4                Tilemap_special_stage_bg_frame_1
                0x00000000084915e8                Palette_special_stage_bg_frame_2
                0x00000000084917e8                Tiles_special_stage_bg_frame_2
                0x0000000008493408                Tilemap_special_stage_bg_frame_2
                0x000000000849361c                Palette_special_stage_bg_frame_3
                0x000000000849381c                Tiles_special_stage_bg_frame_3
                0x00000000084953dc                Tilemap_special_stage_bg_frame_3
                0x00000000084955f0                Palette_special_stage_bg_frame_4
                0x00000000084957f0                Tiles_special_stage_bg_frame_4
                0x00000000084973d0                Tilemap_special_stage_bg_frame_4
                0x00000000084975e4                Palette_special_stage_bg_frame_5
                0x00000000084977e4                Tiles_special_stage_bg_frame_5
                0x00000000084993a4                Tilemap_special_stage_bg_frame_5
                0x00000000084995b8                Palette_special_stage_bg_frame_6
                0x00000000084997b8                Tiles_special_stage_bg_frame_6
                0x000000000849b298                Tilemap_special_stage_bg_frame_6
                0x000000000849b4ac                Palette_special_stage_bg_frame_7
                0x000000000849b6ac                Tiles_special_stage_bg_frame_7
                0x000000000849d24c                Tilemap_special_stage_bg_frame_7
                0x000000000849d460                Palette_special_stage_bg_frame_8
                0x000000000849d660                Tiles_special_stage_bg_frame_8
                0x000000000849f160                Tilemap_special_stage_bg_frame_8
                0x000000000849f374                Palette_special_stage_bg_frame_9
                0x000000000849f574                Tiles_special_stage_bg_frame_9
                0x00000000084a1014                Tilemap_special_stage_bg_frame_9
                0x00000000084a1228                Palette_special_stage_bg_frame_10
                0x00000000084a1428                Tiles_special_stage_bg_frame_10
                0x00000000084a2f08                Tilemap_special_stage_bg_frame_10
                0x00000000084a311c                Palette_special_stage_bg_frame_11
                0x00000000084a331c                Tiles_special_stage_bg_frame_11
                0x00000000084a4e1c                Tilemap_special_stage_bg_frame_11
                0x00000000084a5030                Palette_special_stage_bg_frame_12
                0x00000000084a5230                Tiles_special_stage_bg_frame_12
                0x00000000084a6d50                Tilemap_special_stage_bg_frame_12
                0x00000000084a6f64                Palette_special_stage_bg_frame_13
                0x00000000084a7164                Tiles_special_stage_bg_frame_13
                0x00000000084a8c84                Tilemap_special_stage_bg_frame_13
                0x00000000084a8e98                Palette_special_stage_bg_frame_14
                0x00000000084a9098                Tiles_special_stage_bg_frame_14
                0x00000000084aabb8                Tilemap_special_stage_bg_frame_14
                0x00000000084aadcc                Palette_special_stage_bg_frame_15
                0x00000000084aafcc                Tiles_special_stage_bg_frame_15
                0x00000000084acb8c                Tilemap_special_stage_bg_frame_15
 build/sa1/data/data_0_3.o(.rodata)
 .rodata        0x00000000084acda0      0x19c build/sa1/data/data_0_3.o
                0x00000000084acda0                gUnknown_084ACDA0
                0x00000000084acdac                gUnknown_084ACDAC
                0x00000000084acdc0                gUnknown_084ACDC0
                0x00000000084acdd2                gUnknown_084ACDD2
                0x00000000084acdd4                gUnknown_084ACDD4
                0x00000000084acdd8                gUnknown_084ACDD8
                0x00000000084ace12                gUnknown_084ACE12
                0x00000000084ace24                gUnknown_084ACE24
                0x00000000084acea4                gUnknown_084ACEA4
                0x00000000084aceb4                gUnknown_084ACEB4
                0x00000000084acec6                gUnknown_084ACEC6
                0x00000000084aced8                gUnknown_084ACED8
                0x00000000084acee4                gUnknown_084ACEE4
                0x00000000084acef6                gUnknown_084ACEF6
                0x00000000084acf08                gUnknown_084ACF08
                0x00000000084acf1c                gUnknown_084ACF1C
                0x00000000084acf24                gUnknown_084ACF24
                0x00000000084acf2c                gUnknown_084ACF2C
                0x00000000084acf34                gUnknown_084ACF34
 build/sa1/src/data/tilemap_data_2.o(.rodata)
 .rodata        0x00000000084acf3c      0xacc build/sa1/src/data/tilemap_data_2.o
                0x00000000084acf3c                Palette_mp_multipak_player_overview
                0x00000000084ad13c                Tiles_mp_multipak_player_overview
                0x00000000084ad53c                Tilemap_mp_multipak_player_overview
                0x00000000084ad9ec                mp_multipak_player_overview
 build/sa1/data/data_0_3_2.o(.rodata)
 .rodata        0x00000000084ada08      0x338 build/sa1/data/data_0_3_2.o
                0x00000000084ada08                gUnknown_084ADA08
                0x00000000084ada0a                gUnknown_084ADA0A
                0x00000000084ada0e                gUnknown_084ADA0E
                0x00000000084ada10                gUnknown_084ADA10
                0x00000000084ada1a                gUnknown_084ADA1A
                0x00000000084ada1e                gUnknown_084ADA1E
                0x00000000084ada24                gUnknown_084ADA24
                0x00000000084adae4                gUnknown_084ADAE4
                0x00000000084adb08                gUnknown_084ADB08
                0x00000000084adb18                gUnknown_084ADB18
                0x00000000084adb60                gUnknown_084ADB60
                0x00000000084adc60                sStageBgInitProcedures
                0x00000000084adca8                sStageBgUpdateFuncs
                0x00000000084adcf0                gUnknown_084ADCF0
                0x00000000084add38                gUnknown_084ADD38
 build/sa1/src/data/tilemap_table.o(.rodata)
 .rodata        0x00000000084add40      0x168 build/sa1/src/data/tilemap_table.o
                0x00000000084add40                gTilemaps
 build/sa1/data/data_0_4.o(.rodata)
 .rodata        0x00000000084adea8      0x6cc build/sa1/data/data_0_4.o
                0x00000000084adea8                gCollisionTable
                0x00000000084adef0                gUnknown_084ADEF0
                0x00000000084adf38                gUnknown_084ADF38
                0x00000000084adf78                gUnknown_084ADF78
                0x00000000084adfc0                gUnknown_084ADFC0
                0x00000000084ae008                gPlayerCharacterIdleAnims
                0x00000000084ae010                gUnknown_084AE010
                0x00000000084ae188                gUnknown_084AE188
                0x00000000084ae19a                gUnknown_084AE19A
                0x00000000084ae1ac                gUnknown_084AE1AC
                0x00000000084ae1b0                gUnknown_084AE1B0
                0x00000000084ae1c4                gUnknown_084AE1C4
                0x00000000084ae548                gUnknown_084AE548
                0x00000000084ae560                gUnknown_084AE560
 build/sa1/src/data/tilemap_data_3.o(.rodata)
 .rodata        0x00000000084ae574   0x1b0a80 build/sa1/src/data/tilemap_data_3.o
                0x00000000084ae574                Palette_zone_1_act_1_fg
                0x00000000084ae774                Tileset_zone_1_act_1_fg
                0x00000000084b6934                CollHeightMap_zone_1_act_1_fg
                0x00000000084b87e4                CollTileRot_zone_1_act_1_fg
                0x00000000084b8bbc                Metatiles_zone_1_act_1_fg
                0x00000000084c52dc                Map_zone_1_act_1_fg0
                0x00000000084c5a4c                Map_zone_1_act_1_fg1
                0x00000000084c61bc                CollFlags_zone_1_act_1_fg
                0x00000000084c62b4                zone_1_act_1_fg0
                0x00000000084c62d8                zone_1_act_1_fg1
                0x00000000084c62fc                CollHeader_zone_1_act_1_fg
                0x00000000084c631c                Palette_zone_1_act_2_fg
                0x00000000084c651c                Tileset_zone_1_act_2_fg
                0x00000000084ce6dc                CollHeightMap_zone_1_act_2_fg
                0x00000000084d058c                CollTileRot_zone_1_act_2_fg
                0x00000000084d0964                Metatiles_zone_1_act_2_fg
                0x00000000084dc664                Map_zone_1_act_2_fg0
                0x00000000084dcd6c                Map_zone_1_act_2_fg1
                0x00000000084dd474                CollFlags_zone_1_act_2_fg
                0x00000000084dd56c                zone_1_act_2_fg0
                0x00000000084dd590                zone_1_act_2_fg1
                0x00000000084dd5b4                CollHeader_zone_1_act_2_fg
                0x00000000084dd5d4                Palette_zone_2_act_1_fg
                0x00000000084dd7d4                Tileset_zone_2_act_1_fg
                0x00000000084e5914                CollHeightMap_zone_2_act_1_fg
                0x00000000084e72e4                CollTileRot_zone_2_act_1_fg
                0x00000000084e7620                Metatiles_zone_2_act_1_fg
                0x00000000084f3560                Map_zone_2_act_1_fg0
                0x00000000084f3c20                Map_zone_2_act_1_fg1
                0x00000000084f42e0                CollFlags_zone_2_act_1_fg
                0x00000000084f43b0                zone_2_act_1_fg0
                0x00000000084f43d4                zone_2_act_1_fg1
                0x00000000084f43f8                CollHeader_zone_2_act_1_fg
                0x00000000084f4418                Palette_zone_2_act_2_fg
                0x00000000084f4618                Tileset_zone_2_act_2_fg
                0x00000000084fc758                CollHeightMap_zone_2_act_2_fg
                0x00000000084fe128                CollTileRot_zone_2_act_2_fg
                0x00000000084fe464                Metatiles_zone_2_act_2_fg
                0x000000000850d0a4                Map_zone_2_act_2_fg0
                0x000000000850d7fc                Map_zone_2_act_2_fg1
                0x000000000850df54                CollFlags_zone_2_act_2_fg
                0x000000000850e024                zone_2_act_2_fg0
                0x000000000850e048                zone_2_act_2_fg1
                0x000000000850e06c                CollHeader_zone_2_act_2_fg
                0x000000000850e08c                Palette_zone_3_act_1_fg
                0x000000000850e28c                Tileset_zone_3_act_1_fg
                0x000000000851638c                CollHeightMap_zone_3_act_1_fg
                0x00000000085182cc                CollTileRot_zone_3_act_1_fg
                0x00000000085186b4                Metatiles_zone_3_act_1_fg
                0x0000000008526334                Map_zone_3_act_1_fg0
                0x0000000008526b02                Map_zone_3_act_1_fg1
                0x00000000085272d0                CollFlags_zone_3_act_1_fg
                0x00000000085273cc                zone_3_act_1_fg0
                0x00000000085273f0                zone_3_act_1_fg1
                0x0000000008527414                CollHeader_zone_3_act_1_fg
                0x0000000008527434                Palette_zone_3_act_2_fg
                0x0000000008527634                Tileset_zone_3_act_2_fg
                0x000000000852f734                CollHeightMap_zone_3_act_2_fg
                0x0000000008531674                CollTileRot_zone_3_act_2_fg
                0x0000000008531a5c                Metatiles_zone_3_act_2_fg
                0x00000000085434bc                Map_zone_3_act_2_fg0
                0x0000000008543dcc                Map_zone_3_act_2_fg1
                0x00000000085446dc                CollFlags_zone_3_act_2_fg
                0x00000000085447d8                zone_3_act_2_fg0
                0x00000000085447fc                zone_3_act_2_fg1
                0x0000000008544820                CollHeader_zone_3_act_2_fg
                0x0000000008544840                Palette_zone_4_act_1_fg
                0x0000000008544a40                Tileset_zone_4_act_1_fg
                0x000000000854ca40                CollHeightMap_zone_4_act_1_fg
                0x000000000854ea40                CollTileRot_zone_4_act_1_fg
                0x000000000854ee40                Metatiles_zone_4_act_1_fg
                0x0000000008560780                Map_zone_4_act_1_fg0
                0x0000000008561446                Map_zone_4_act_1_fg1
                0x000000000856210c                CollFlags_zone_4_act_1_fg
                0x000000000856220c                zone_4_act_1_fg0
                0x0000000008562230                zone_4_act_1_fg1
                0x0000000008562254                CollHeader_zone_4_act_1_fg
                0x0000000008562274                Palette_zone_4_act_2_fg
                0x0000000008562474                Tileset_zone_4_act_2_fg
                0x000000000856a474                CollHeightMap_zone_4_act_2_fg
                0x000000000856c474                CollTileRot_zone_4_act_2_fg
                0x000000000856c874                Metatiles_zone_4_act_2_fg
                0x000000000857daf4                Map_zone_4_act_2_fg0
                0x000000000857e44c                Map_zone_4_act_2_fg1
                0x000000000857eda4                CollFlags_zone_4_act_2_fg
                0x000000000857eea4                zone_4_act_2_fg0
                0x000000000857eec8                zone_4_act_2_fg1
                0x000000000857eeec                CollHeader_zone_4_act_2_fg
                0x000000000857ef0c                Palette_zone_5_act_1_fg
                0x000000000857f10c                Tileset_zone_5_act_1_fg
                0x000000000858710c                CollHeightMap_zone_5_act_1_fg
                0x000000000858910c                CollTileRot_zone_5_act_1_fg
                0x000000000858950c                Metatiles_zone_5_act_1_fg
                0x000000000859ac0c                Map_zone_5_act_1_fg0
                0x000000000859b638                Map_zone_5_act_1_fg1
                0x000000000859c064                CollFlags_zone_5_act_1_fg
                0x000000000859c164                zone_5_act_1_fg0
                0x000000000859c188                zone_5_act_1_fg1
                0x000000000859c1ac                CollHeader_zone_5_act_1_fg
                0x000000000859c1cc                Palette_zone_5_act_2_fg
                0x000000000859c3cc                Tileset_zone_5_act_2_fg
                0x00000000085a43cc                CollHeightMap_zone_5_act_2_fg
                0x00000000085a63cc                CollTileRot_zone_5_act_2_fg
                0x00000000085a67cc                Metatiles_zone_5_act_2_fg
                0x00000000085b7dac                Map_zone_5_act_2_fg0
                0x00000000085b84b4                Map_zone_5_act_2_fg1
                0x00000000085b8bbc                CollFlags_zone_5_act_2_fg
                0x00000000085b8cbc                zone_5_act_2_fg0
                0x00000000085b8ce0                zone_5_act_2_fg1
                0x00000000085b8d04                CollHeader_zone_5_act_2_fg
                0x00000000085b8d24                Palette_zone_6_act_1_fg
                0x00000000085b8f24                Tileset_zone_6_act_1_fg
                0x00000000085c0f24                CollHeightMap_zone_6_act_1_fg
                0x00000000085c2f24                CollTileRot_zone_6_act_1_fg
                0x00000000085c3324                Metatiles_zone_6_act_1_fg
                0x00000000085d5324                Map_zone_6_act_1_fg0
                0x00000000085d6168                Map_zone_6_act_1_fg1
                0x00000000085d6fac                CollFlags_zone_6_act_1_fg
                0x00000000085d70ac                zone_6_act_1_fg0
                0x00000000085d70d0                zone_6_act_1_fg1
                0x00000000085d70f4                CollHeader_zone_6_act_1_fg
                0x00000000085d7114                Palette_zone_6_act_2_fg
                0x00000000085d7314                Tileset_zone_6_act_2_fg
                0x00000000085df314                CollHeightMap_zone_6_act_2_fg
                0x00000000085e1314                CollTileRot_zone_6_act_2_fg
                0x00000000085e1714                Metatiles_zone_6_act_2_fg
                0x00000000085efdb4                Map_zone_6_act_2_fg0
                0x00000000085f08e0                Map_zone_6_act_2_fg1
                0x00000000085f140c                CollFlags_zone_6_act_2_fg
                0x00000000085f150c                zone_6_act_2_fg0
                0x00000000085f1530                zone_6_act_2_fg1
                0x00000000085f1554                CollHeader_zone_6_act_2_fg
                0x00000000085f1574                Palette_zone_7_act_1_fg
                0x00000000085f1774                Tileset_zone_7_act_1_fg
                0x00000000085f5774                CollHeightMap_zone_7_act_1_fg
                0x00000000085f6774                CollTileRot_zone_7_act_1_fg
                0x00000000085f6974                Metatiles_zone_7_act_1_fg
                0x00000000085f8c54                Map_zone_7_act_1_fg0
                0x00000000085f8de4                Map_zone_7_act_1_fg1
                0x00000000085f8f74                CollFlags_zone_7_act_1_fg
                0x00000000085f8ff4                zone_7_act_1_fg0
                0x00000000085f9018                zone_7_act_1_fg1
                0x00000000085f903c                CollHeader_zone_7_act_1_fg
                0x00000000085f905c                Palette_zone_7_act_2_fg
                0x00000000085f925c                Tileset_zone_7_act_2_fg
                0x00000000085fab5c                CollHeightMap_zone_7_act_2_fg
                0x00000000085fb19c                CollTileRot_zone_7_act_2_fg
                0x00000000085fb264                Metatiles_zone_7_act_2_fg
                0x00000000085fcc44                Map_zone_7_act_2_fg0
                0x00000000085fcca4                Map_zone_7_act_2_fg1
                0x00000000085fcd04                CollFlags_zone_7_act_2_fg
                0x00000000085fcd38                zone_7_act_2_fg0
                0x00000000085fcd5c                zone_7_act_2_fg1
                0x00000000085fcd80                CollHeader_zone_7_act_2_fg
                0x00000000085fcda0                Palette_zone_chao_hunt_act_vs_zone_a_fg
                0x00000000085fcfa0                Tileset_zone_chao_hunt_act_vs_zone_a_fg
                0x0000000008604fa0                CollHeightMap_zone_chao_hunt_act_vs_zone_a_fg
                0x0000000008606de0                CollTileRot_zone_chao_hunt_act_vs_zone_a_fg
                0x00000000086071a8                Metatiles_zone_chao_hunt_act_vs_zone_a_fg
                0x000000000860ab08                Map_zone_chao_hunt_act_vs_zone_a_fg0
                0x000000000860abf8                Map_zone_chao_hunt_act_vs_zone_a_fg1
                0x000000000860ace8                CollFlags_zone_chao_hunt_act_vs_zone_a_fg
                0x000000000860addc                zone_chao_hunt_act_vs_zone_a_fg0
                0x000000000860ae00                zone_chao_hunt_act_vs_zone_a_fg1
                0x000000000860ae24                CollHeader_zone_chao_hunt_act_vs_zone_a_fg
                0x000000000860ae44                Palette_zone_chao_hunt_act_vs_zone_b_fg
                0x000000000860b044                Tileset_zone_chao_hunt_act_vs_zone_b_fg
                0x0000000008613184                CollHeightMap_zone_chao_hunt_act_vs_zone_b_fg
                0x0000000008614b54                CollTileRot_zone_chao_hunt_act_vs_zone_b_fg
                0x0000000008614e90                Metatiles_zone_chao_hunt_act_vs_zone_b_fg
                0x0000000008618250                Map_zone_chao_hunt_act_vs_zone_b_fg0
                0x0000000008618340                Map_zone_chao_hunt_act_vs_zone_b_fg1
                0x0000000008618430                CollFlags_zone_chao_hunt_act_vs_zone_b_fg
                0x0000000008618500                zone_chao_hunt_act_vs_zone_b_fg0
                0x0000000008618524                zone_chao_hunt_act_vs_zone_b_fg1
                0x0000000008618548                CollHeader_zone_chao_hunt_act_vs_zone_b_fg
                0x0000000008618568                Palette_zone_chao_hunt_act_vs_zone_c_fg
                0x0000000008618768                Tileset_zone_chao_hunt_act_vs_zone_c_fg
                0x0000000008620768                CollHeightMap_zone_chao_hunt_act_vs_zone_c_fg
                0x0000000008622768                CollTileRot_zone_chao_hunt_act_vs_zone_c_fg
                0x0000000008622b68                Metatiles_zone_chao_hunt_act_vs_zone_c_fg
                0x0000000008627128                Map_zone_chao_hunt_act_vs_zone_c_fg0
                0x0000000008627240                Map_zone_chao_hunt_act_vs_zone_c_fg1
                0x0000000008627358                CollFlags_zone_chao_hunt_act_vs_zone_c_fg
                0x0000000008627458                zone_chao_hunt_act_vs_zone_c_fg0
                0x000000000862747c                zone_chao_hunt_act_vs_zone_c_fg1
                0x00000000086274a0                CollHeader_zone_chao_hunt_act_vs_zone_c_fg
                0x00000000086274c0                Palette_zone_chao_hunt_act_vs_zone_d_fg
                0x00000000086276c0                Tileset_zone_chao_hunt_act_vs_zone_d_fg
                0x000000000862f6c0                CollHeightMap_zone_chao_hunt_act_vs_zone_d_fg
                0x00000000086316c0                CollTileRot_zone_chao_hunt_act_vs_zone_d_fg
                0x0000000008631ac0                Metatiles_zone_chao_hunt_act_vs_zone_d_fg
                0x0000000008633fe0                Map_zone_chao_hunt_act_vs_zone_d_fg0
                0x00000000086340f8                Map_zone_chao_hunt_act_vs_zone_d_fg1
                0x0000000008634210                CollFlags_zone_chao_hunt_act_vs_zone_d_fg
                0x0000000008634310                zone_chao_hunt_act_vs_zone_d_fg0
                0x0000000008634334                zone_chao_hunt_act_vs_zone_d_fg1
                0x0000000008634358                CollHeader_zone_chao_hunt_act_vs_zone_d_fg
                0x0000000008634378                Tiles_zone_1_act_1_bg
                0x0000000008635d78                Tilemap_zone_1_act_1_bg
                0x0000000008636578                zone_1_act_1_bg
                0x0000000008636594                Tiles_zone_2_act_1_bg
                0x0000000008637994                Tilemap_zone_2_act_1_bg
                0x0000000008638994                zone_2_act_1_bg
                0x00000000086389b0                Tiles_zone_3_act_1_bg
                0x0000000008639bb0                Tilemap_zone_3_act_1_bg
                0x000000000863a3b0                zone_3_act_1_bg
                0x000000000863a3cc                Tiles_zone_4_act_1_bg
                0x000000000863e3cc                Tilemap_zone_4_act_1_bg
                0x000000000863f3cc                zone_4_act_1_bg
                0x000000000863f3e8                Tiles_zone_5_act_1_bg
                0x00000000086417e8                Tilemap_zone_5_act_1_bg
                0x0000000008641c98                zone_5_act_1_bg
                0x0000000008641cb4                Tiles_zone_6_act_1_bg
                0x0000000008646cb4                Tilemap_zone_6_act_1_bg
                0x0000000008648cb4                zone_6_act_1_bg
                0x0000000008648cd0                Tiles_zone_6_act_2_bg
                0x000000000864b4d0                Tilemap_zone_6_act_2_bg
                0x000000000864c350                zone_6_act_2_bg
                0x000000000864c36c                Tiles_zone_7_act_1_bg
                0x000000000865136c                Tilemap_zone_7_act_1_bg
                0x0000000008651a14                zone_7_act_1_bg
                0x0000000008651a30                Tiles_zone_7_act_2_bg
                0x0000000008653430                Tilemap_zone_7_act_2_bg
                0x0000000008653930                zone_7_act_2_bg
                0x000000000865394c                Tiles_zone_chao_hunt_act_vs_zone_a_bg
                0x000000000865474c                Tilemap_zone_chao_hunt_act_vs_zone_a_bg
                0x0000000008654f4c                zone_chao_hunt_act_vs_zone_a_bg
                0x0000000008654f68                Tiles_zone_chao_hunt_act_vs_zone_b_bg
                0x0000000008656368                Tilemap_zone_chao_hunt_act_vs_zone_b_bg
                0x0000000008657368                zone_chao_hunt_act_vs_zone_b_bg
                0x0000000008657384                Tiles_zone_chao_hunt_act_vs_zone_c_bg
                0x0000000008658584                Tilemap_zone_chao_hunt_act_vs_zone_c_bg
                0x0000000008658d84                zone_chao_hunt_act_vs_zone_c_bg
                0x0000000008658da0                Tiles_zone_chao_hunt_act_vs_zone_d_bg
                0x000000000865b5a0                Tilemap_zone_chao_hunt_act_vs_zone_d_bg
                0x000000000865c420                zone_chao_hunt_act_vs_zone_d_bg
                0x000000000865c43c                Palette_unknown_starfield
                0x000000000865c63c                Tiles_unknown_starfield
                0x000000000865d2bc                Tilemap_unknown_starfield
                0x000000000865dabc                unknown_starfield
                0x000000000865dad8                Palette_unknown_clouds
                0x000000000865dcd8                Tiles_unknown_clouds
                0x000000000865ead8                Tilemap_unknown_clouds
                0x000000000865efd8                unknown_clouds
 build/sa1/data/data_0_5.o(.rodata)
 .rodata        0x000000000865eff4    0x6fe7c build/sa1/data/data_0_5.o
                0x000000000865eff4                gUnknown_0865EFF4
                0x000000000865f06c                gUnknown_0865F06C
                0x000000000865f0e4                gUnknown_0865F0E4
                0x000000000865f15e                gUnknown_0865F15E
                0x000000000865f174                gUnknown_0865F174
                0x000000000865f178                gUnknown_0865F178
                0x0000000008683fdc                gUnknown_08683FDC
                0x000000000868401c                gUnknown_0868401C
                0x000000000868403c                gUnknown_0868403C
                0x000000000868483c                gUnknown_0868483C
                0x0000000008684d3c                gUnknown_08684D3C
                0x0000000008685d3c                gUnknown_08685D3C
                0x0000000008685d5a                gUnknown_08685D5A
                0x000000000868653c                gUnknown_0868653C
                0x0000000008687b3c                gUnknown_08687B3C
                0x0000000008687b40                gUnknown_08687B40
                0x0000000008687b44                gUnknown_08687B44
                0x0000000008687b48                gUnknown_08687B48
                0x0000000008687b4c                gUnknown_08687B4C
                0x0000000008687b50                gUnknown_08687B50
                0x0000000008687b54                gUnknown_08687B54
                0x0000000008687cec                gUnknown_08687CEC
                0x0000000008687cf0                gUnknown_08687CF0
                0x0000000008687cf4                gUnknown_08687CF4
                0x0000000008687cf8                gUnknown_08687CF8
                0x0000000008687d18                gUnknown_08687D18
                0x0000000008687d1c                gUnknown_08687D1C
                0x0000000008687d20                gUnknown_08687D20
                0x0000000008687d24                gUnknown_08687D24
                0x0000000008687d28                gUnknown_08687D28
                0x0000000008687d2c                gUnknown_08687D2C
                0x0000000008687d30                gUnknown_08687D30
                0x0000000008687ebc                gUnknown_08687EBC
                0x0000000008687ec0                gUnknown_08687EC0
                0x0000000008687ec4                gUnknown_08687EC4
                0x0000000008687ec8                gUnknown_08687EC8
                0x0000000008687ecc                gUnknown_08687ECC
                0x0000000008687ed0                gUnknown_08687ED0
                0x0000000008687ed4                gUnknown_08687ED4
                0x0000000008687f4c                gUnknown_08687F4C
                0x000000000868803c                gUnknown_0868803C
                0x0000000008688258                gUnknown_08688258
                0x0000000008688378                gUnknown_08688378
                0x0000000008688386                gUnknown_08688386
                0x0000000008688394                gUnknown_08688394
                0x0000000008688398                gUnknown_08688398
                0x00000000086883ac                gUnknown_086883AC
                0x00000000086883b0                gUnknown_086883B0
                0x00000000086883b8                gUnknown_086883B8
                0x00000000086883c4                gUnknown_086883C4
                0x00000000086883cc                gUnknown_086883CC
                0x00000000086883e4                gUnknown_086883E4
                0x00000000086883f8                gUnknown_086883F8
                0x0000000008688404                gUnknown_08688404
                0x000000000868840f                gUnknown_0868840F
                0x000000000868841c                gUnknown_0868841C
                0x0000000008688428                gUnknown_08688428
                0x0000000008688444                gUnknown_08688444
                0x0000000008688492                gUnknown_08688492
                0x0000000008688568                gUnknown_08688568
                0x000000000868856c                gUnknown_0868856C
                0x0000000008688570                gUnknown_08688570
                0x0000000008688578                gUnknown_08688578
                0x000000000868857c                gUnknown_0868857C
                0x0000000008688580                gUnknown_08688580
                0x000000000868859c                gUnknown_0868859C
                0x00000000086885a8                gUnknown_086885A8
                0x00000000086885c4                gUnknown_086885C4
                0x00000000086885ce                gUnknown_086885CE
                0x00000000086885ee                gUnknown_086885EE
                0x00000000086885fc                gUnknown_086885FC
                0x0000000008688600                gUnknown_08688600
                0x0000000008688602                gUnknown_08688602
                0x0000000008688608                gUnknown_08688608
                0x0000000008688618                gUnknown_08688618
                0x000000000868862c                gUnknown_0868862C
                0x0000000008688638                gUnknown_08688638
                0x0000000008688650                gUnknown_08688650
                0x0000000008688658                gUnknown_08688658
                0x0000000008688664                gUnknown_08688664
                0x0000000008688684                gUnknown_08688684
                0x0000000008688688                gUnknown_08688688
                0x000000000868868c                gUnknown_0868868C
                0x0000000008688690                gUnknown_08688690
                0x0000000008688694                gUnknown_08688694
                0x0000000008688698                gUnknown_08688698
                0x000000000868869c                gUnknown_0868869C
                0x00000000086886a0                gUnknown_086886A0
                0x00000000086886b8                gUnknown_086886B8
                0x00000000086886bb                gUnknown_086886BB
                0x000000000868b078                gUnknown_0868B078
                0x000000000868b0cc                gUnknown_0868B0CC
                0x000000000868b0d4                gUnknown_0868B0D4
                0x000000000868b0ec                gUnknown_0868B0EC
                0x000000000868b0f4                gUnknown_0868B0F4
                0x000000000868b0fc                gUnknown_0868B0FC
                0x000000000868b10c                gUnknown_0868B10C
                0x000000000868b1c0                gUnknown_0868B1C0
                0x000000000868b220                gUnknown_0868B220
                0x000000000868b240                gUnknown_0868B240
                0x000000000868b248                gUnknown_0868B248
                0x000000000868b27c                gUnknown_0868B27C
                0x000000000868b280                gUnknown_0868B280
                0x000000000868b284                gUnknown_0868B284
                0x000000000868b288                gUnknown_0868B288
                0x000000000868b28c                gUnknown_0868B28C
                0x000000000868b2d4                gUnknown_0868B2D4
                0x000000000868b31c                gUnknown_0868B31C
                0x000000000868b388                gUnknown_0868B388
                0x000000000868b3b8                gUnknown_0868B3B8
                0x000000000868b3c0                gUnknown_0868B3C0
                0x000000000868b3c2                gUnknown_0868B3C2
                0x000000000868b3c8                gUnknown_0868B3C8
                0x000000000868b3d0                gUnknown_0868B3D0
                0x000000000868b3d8                gUnknown_0868B3D8
                0x000000000868b3e8                gUnknown_0868B3E8
                0x000000000868b3f8                gUnknown_0868B3F8
                0x000000000868b408                gUnknown_0868B408
                0x000000000868b418                gUnknown_0868B418
                0x000000000868b428                gUnknown_0868B428
                0x000000000868b438                gUnknown_0868B438
                0x000000000868b448                gUnknown_0868B448
                0x000000000868b458                gUnknown_0868B458
                0x000000000868b468                gUnknown_0868B468
                0x000000000868b478                gUnknown_0868B478
                0x000000000868b488                gUnknown_0868B488
                0x000000000868b498                gUnknown_0868B498
                0x000000000868b4a8                gUnknown_0868B4A8
                0x000000000868b4b8                gUnknown_0868B4B8
                0x000000000868b4be                gUnknown_0868B4BE
                0x000000000868b584                gUnknown_0868B584
                0x000000000868b594                gUnknown_0868B594
                0x000000000868b5a4                gUnknown_0868B5A4
                0x000000000868b5b4                gUnknown_0868B5B4
                0x000000000868b5c4                gUnknown_0868B5C4
                0x000000000868b634                gUnknown_0868B634
                0x000000000868b644                gUnknown_0868B644
                0x000000000868b654                gUnknown_0868B654
                0x000000000868b658                gUnknown_0868B658
                0x000000000868b65c                gUnknown_0868B65C
                0x000000000868b678                gUnknown_0868B678
                0x000000000868b684                gUnknown_0868B684
                0x000000000868b694                gUnknown_0868B694
                0x000000000868b69c                gUnknown_0868B69C
                0x000000000868b6a0                gUnknown_0868B6A0
                0x000000000868b6b8                gUnknown_0868B6B8
                0x000000000868b6c4                gUnknown_0868B6C4
                0x000000000868b6d4                gUnknown_0868B6D4
                0x000000000868b6ec                gUnknown_0868B6EC
                0x000000000868b704                gUnknown_0868B704
                0x000000000868b710                gUnknown_0868B710
                0x000000000868b71c                gUnknown_0868B71C
                0x000000000868b722                gUnknown_0868B722
                0x000000000868b728                gUnknown_0868B728
                0x000000000868b729                gUnknown_0868B729
                0x000000000868b734                gUnknown_0868B734
                0x000000000868b735                gUnknown_0868B735
                0x000000000868b758                gUnknown_0868B758
                0x000000000868b760                gUnknown_0868B760
                0x000000000868b76c                gUnknown_0868B76C
                0x000000000868b778                gUnknown_0868B778
                0x000000000868b77e                gUnknown_0868B77E
                0x000000000868b782                gUnknown_0868B782
                0x000000000868b786                gUnknown_0868B786
                0x000000000868b78a                gUnknown_0868B78A
                0x000000000868b78b                gUnknown_0868B78B
                0x000000000868b790                gUnknown_0868B790
                0x000000000868b794                gUnknown_0868B794
                0x000000000868b814                gUnknown_0868B814
                0x000000000868b838                gUnknown_0868B838
                0x000000000868b844                gUnknown_0868B844
                0x000000000868b8d4                gUnknown_0868B8D4
                0x000000000868b8f4                gUnknown_0868B8F4
                0x000000000868c0b4                gUnknown_0868C0B4
                0x000000000868c5b4                gUnknown_0868C5B4
                0x000000000868c5d4                gUnknown_0868C5D4
                0x000000000868cf14                gUnknown_0868CF14
                0x000000000868d414                gUnknown_0868D414
                0x000000000868d434                gUnknown_0868D434
                0x000000000868da54                gUnknown_0868DA54
                0x000000000868dfd4                gUnknown_0868DFD4
                0x000000000868dff4                gUnknown_0868DFF4
                0x000000000868e5f4                gUnknown_0868E5F4
                0x000000000868eb74                gUnknown_0868EB74
                0x000000000868ed74                gUnknown_0868ED74
                0x000000000868f534                gUnknown_0868F534
                0x0000000008690574                gUnknown_08690574
                0x0000000008691d74                gUnknown_08691D74
                0x0000000008692274                gUnknown_08692274
                0x0000000008692474                gUnknown_08692474
                0x0000000008692934                gUnknown_08692934
                0x0000000008693974                gUnknown_08693974
                0x00000000086951f4                gUnknown_086951F4
                0x00000000086956f4                gUnknown_086956F4
                0x00000000086958f4                gUnknown_086958F4
                0x00000000086962b4                gUnknown_086962B4
                0x00000000086972f4                gUnknown_086972F4
                0x0000000008698bf4                gUnknown_08698BF4
                0x00000000086990f4                gUnknown_086990F4
                0x00000000086992f4                gUnknown_086992F4
                0x0000000008699974                gUnknown_08699974
                0x000000000869a9b4                gUnknown_0869A9B4
                0x000000000869c5f4                gUnknown_0869C5F4
                0x000000000869caf4                gUnknown_0869CAF4
                0x000000000869ccf4                gUnknown_0869CCF4
                0x000000000869e934                gUnknown_0869E934
                0x000000000869ee34                gUnknown_0869EE34
                0x000000000869f034                gUnknown_0869F034
                0x00000000086a10f4                gUnknown_086A10F4
                0x00000000086a17f4                gUnknown_086A17F4
                0x00000000086a2534                gUnknown_086A2534
                0x00000000086a2a34                gUnknown_086A2A34
                0x00000000086a2c34                gUnknown_086A2C34
                0x00000000086a3db4                gUnknown_086A3DB4
                0x00000000086a4db4                gUnknown_086A4DB4
                0x00000000086a4fb4                gUnknown_086A4FB4
                0x00000000086a5834                gUnknown_086A5834
                0x00000000086a5d34                gUnknown_086A5D34
                0x00000000086a5f34                gUnknown_086A5F34
                0x00000000086a8e34                gUnknown_086A8E34
                0x00000000086a9834                gUnknown_086A9834
                0x00000000086ac074                gUnknown_086AC074
                0x00000000086acb34                gUnknown_086ACB34
                0x00000000086af4f4                gUnknown_086AF4F4
                0x00000000086affb4                gUnknown_086AFFB4
                0x00000000086b13f4                gUnknown_086B13F4
                0x00000000086b1ab4                gUnknown_086B1AB4
                0x00000000086b1ad4                gUnknown_086B1AD4
                0x00000000086b1af4                gUnknown_086B1AF4
                0x00000000086b1b14                gUnknown_086B1B14
                0x00000000086b1cb4                gUnknown_086B1CB4
                0x00000000086b21f4                gUnknown_086B21F4
                0x00000000086b29f4                gUnknown_086B29F4
                0x00000000086b2bf4                gUnknown_086B2BF4
                0x00000000086b49f4                gUnknown_086B49F4
                0x00000000086b51f4                gUnknown_086B51F4
                0x00000000086b53f4                gUnknown_086B53F4
                0x00000000086b6f74                gUnknown_086B6F74
                0x00000000086b7774                gUnknown_086B7774
                0x00000000086b7974                gUnknown_086B7974
                0x00000000086b91f4                gUnknown_086B91F4
                0x00000000086b99f4                gUnknown_086B99F4
                0x00000000086b9bf4                gUnknown_086B9BF4
                0x00000000086bb434                gUnknown_086BB434
                0x00000000086bbc34                gUnknown_086BBC34
                0x00000000086bbe34                gUnknown_086BBE34
                0x00000000086be7b4                gUnknown_086BE7B4
                0x00000000086bf7b4                gUnknown_086BF7B4
                0x00000000086bf9b4                gUnknown_086BF9B4
                0x00000000086c5174                gUnknown_086C5174
                0x00000000086c5b74                gUnknown_086C5B74
                0x00000000086c5d74                gUnknown_086C5D74
                0x00000000086c7c34                gUnknown_086C7C34
                0x00000000086c8634                gUnknown_086C8634
                0x00000000086c8834                gUnknown_086C8834
                0x00000000086cbd74                gUnknown_086CBD74
                0x00000000086cc774                gUnknown_086CC774
                0x00000000086cc794                gUnknown_086CC794
                0x00000000086cc834                gUnknown_086CC834
                0x00000000086ccd34                gUnknown_086CCD34
                0x00000000086ccd54                gUnknown_086CCD54
                0x00000000086cd8f4                gUnknown_086CD8F4
                0x00000000086cddf4                gUnknown_086CDDF4
                0x00000000086ce2f4                gUnknown_086CE2F4
                0x00000000086ce4f4                gUnknown_086CE4F4
                0x00000000086ce7f4                gUnknown_086CE7F4
                0x00000000086cecf4                gUnknown_086CECF4
                0x00000000086cecfc                gUnknown_086CECFC
                0x00000000086ced04                sBounceBlockAnims
                0x00000000086ced28                gUnknown_086CED28
                0x00000000086ced4c                gUnknown_086CED4C
                0x00000000086ced6c                gUnknown_086CED6C
                0x00000000086ced90                gUnknown_086CED90
                0x00000000086ced98                gUnknown_086CED98
                0x00000000086cedbc                gUnknown_086CEDBC
                0x00000000086cedc0                gUnknown_086CEDC0
                0x00000000086cee2c                gUnknown_086CEE2C
                0x00000000086cee50                gUnknown_086CEE50
                0x00000000086cee60                gUnknown_086CEE60
 build/sa1/src/data/entities.o(.rodata)
 .rodata        0x00000000086cee70     0xc764 build/sa1/src/data/entities.o
                0x00000000086cee70                zone_1_act_1_rings
                0x00000000086cf23c                zone_1_act_1_enemies
                0x00000000086cf3a8                zone_1_act_1_itemboxes
                0x00000000086cf438                zone_1_act_1_interactables
                0x00000000086cf8c4                zone_1_act_2_rings
                0x00000000086cfcec                zone_1_act_2_enemies
                0x00000000086cfe40                zone_1_act_2_itemboxes
                0x00000000086cfedc                zone_1_act_2_interactables
                0x00000000086d050c                zone_2_act_1_rings
                0x00000000086d085c                zone_2_act_1_enemies
                0x00000000086d08f8                zone_2_act_1_itemboxes
                0x00000000086d0970                zone_2_act_1_interactables
                0x00000000086d0dc4                zone_2_act_2_rings
                0x00000000086d10d4                zone_2_act_2_enemies
                0x00000000086d1184                zone_2_act_2_itemboxes
                0x00000000086d120c                zone_2_act_2_interactables
                0x00000000086d18b4                zone_3_act_1_rings
                0x00000000086d1dd0                zone_3_act_1_enemies
                0x00000000086d1ed8                zone_3_act_1_itemboxes
                0x00000000086d1f74                zone_3_act_1_interactables
                0x00000000086d2cb4                zone_3_act_2_rings
                0x00000000086d3290                zone_3_act_2_enemies
                0x00000000086d33fc                zone_3_act_2_itemboxes
                0x00000000086d34fc                zone_3_act_2_interactables
                0x00000000086d44c4                zone_4_act_1_rings
                0x00000000086d49cc                zone_4_act_1_enemies
                0x00000000086d4ac8                zone_4_act_1_itemboxes
                0x00000000086d4ba0                zone_4_act_1_interactables
                0x00000000086d522c                zone_4_act_2_rings
                0x00000000086d5758                zone_4_act_2_enemies
                0x00000000086d5898                zone_4_act_2_itemboxes
                0x00000000086d5948                zone_4_act_2_interactables
                0x00000000086d5f9c                zone_5_act_1_rings
                0x00000000086d6368                zone_5_act_1_enemies
                0x00000000086d6470                zone_5_act_1_itemboxes
                0x00000000086d6524                zone_5_act_1_interactables
                0x00000000086d6c48                zone_5_act_2_rings
                0x00000000086d6ec0                zone_5_act_2_enemies
                0x00000000086d6f98                zone_5_act_2_itemboxes
                0x00000000086d7018                zone_5_act_2_interactables
                0x00000000086d7588                zone_6_act_1_rings
                0x00000000086d7bd4                zone_6_act_1_enemies
                0x00000000086d7dc8                zone_6_act_1_itemboxes
                0x00000000086d7ee4                zone_6_act_1_interactables
                0x00000000086d8d54                zone_6_act_2_rings
                0x00000000086d94f8                zone_6_act_2_enemies
                0x00000000086d9800                zone_6_act_2_itemboxes
                0x00000000086d98f0                zone_6_act_2_interactables
                0x00000000086dab1c                zone_7_act_1_rings
                0x00000000086dab80                zone_7_act_1_enemies
                0x00000000086dabb8                zone_7_act_1_itemboxes
                0x00000000086dabcc                zone_7_act_1_interactables
                0x00000000086dace8                zone_7_act_2_rings
                0x00000000086dacf8                zone_7_act_2_enemies
                0x00000000086dad18                zone_7_act_2_itemboxes
                0x00000000086dad28                zone_7_act_2_interactables
                0x00000000086dad38                chao_hunt_vs_zone_a_rings
                0x00000000086dad4c                chao_hunt_vs_zone_a_enemies
                0x00000000086dad60                chao_hunt_vs_zone_a_itemboxes
                0x00000000086dad74                chao_hunt_vs_zone_a_interactables
                0x00000000086daf90                chao_hunt_vs_zone_b_rings
                0x00000000086dafa4                chao_hunt_vs_zone_b_enemies
                0x00000000086dafb8                chao_hunt_vs_zone_b_itemboxes
                0x00000000086dafcc                chao_hunt_vs_zone_b_interactables
                0x00000000086db124                chao_hunt_vs_zone_c_rings
                0x00000000086db138                chao_hunt_vs_zone_c_enemies
                0x00000000086db14c                chao_hunt_vs_zone_c_itemboxes
                0x00000000086db160                chao_hunt_vs_zone_c_interactables
                0x00000000086db3f0                chao_hunt_vs_zone_d_rings
                0x00000000086db404                chao_hunt_vs_zone_d_enemies
                0x00000000086db418                chao_hunt_vs_zone_d_itemboxes
                0x00000000086db42c                chao_hunt_vs_zone_d_interactables
 build/sa1/src/lib/m4a/m4a_tables.o(.rodata)
 .rodata        0x00000000086db5d4      0x2d8 build/sa1/src/lib/m4a/m4a_tables.o
                0x00000000086db5d4                gMPlayJumpTableTemplate
                0x00000000086db664                gScaleTable
                0x00000000086db718                gFreqTable
                0x00000000086db748                gPcmSamplesPerVBlankTable
                0x00000000086db760                gCgbScaleTable
                0x00000000086db7e4                gCgbFreqTable
                0x00000000086db7fc                gNoiseTable
                0x00000000086db838                gCgb3Vol
                0x00000000086db848                gClockTable
                0x00000000086db87c                gXcmdTable
 build/sa1/data/sound_data.o(.rodata)
 .rodata        0x00000000086db8ac    0xc0a55 build/sa1/data/sound_data.o
                0x00000000086db8ac                voicegroup000
                0x00000000086dbcfc                voicegroup001
                0x00000000086dbeac                voicegroup002
                0x00000000086dc128                voicegroup003
                0x00000000086dc29c                voicegroup004
                0x00000000086dc488                voicegroup005
                0x00000000086dca88                voicegroup006
                0x00000000086dd088                voicegroup007
                0x00000000086dd664                KeySplitTable000
                0x00000000086dd6d0                ProgrammableWaveData_86DD6D0
                0x00000000086dd6e0                ProgrammableWaveData_86DD6E0
                0x00000000086dd6f0                ProgrammableWaveData_86DD6F0
                0x00000000086dd700                ProgrammableWaveData_86DD700
                0x00000000086dd710                ProgrammableWaveData_86DD710
                0x00000000086dd720                ProgrammableWaveData_86DD720
                0x00000000086dd730                ProgrammableWaveData_86DD730
                0x00000000086dd740                ProgrammableWaveData_86DD740
                0x00000000086dd750                ProgrammableWaveData_86DD750
                0x00000000086dd760                gMPlayTable
                0x00000000086dd790                gSongTable
                0x00000000086de130                song000
                0x00000000086de134                gUnknown_086DE134
                0x00000000086df608                gUnknown_086DF608
                0x00000000086e0a1c                gUnknown_086E0A1C
                0x00000000086e134c                gUnknown_086E134C
                0x00000000086e1abc                gUnknown_086E1ABC
                0x00000000086e33b0                gUnknown_086E33B0
                0x00000000086e64dc                gUnknown_086E64DC
                0x00000000086e6b24                gUnknown_086E6B24
                0x00000000086ea218                gUnknown_086EA218
                0x00000000086ed1f4                gUnknown_086ED1F4
                0x00000000086f0138                gUnknown_086F0138
                0x00000000086f1ac0                gUnknown_086F1AC0
                0x00000000086f1dc0                gUnknown_086F1DC0
                0x00000000086f2994                gUnknown_086F2994
                0x00000000086f5578                gUnknown_086F5578
                0x00000000086f836c                gUnknown_086F836C
                0x00000000086fa790                gUnknown_086FA790
                0x00000000086faea4                gUnknown_086FAEA4
                0x00000000086fbbd4                gUnknown_086FBBD4
                0x00000000086fe150                gUnknown_086FE150
                0x00000000086fe7e4                gUnknown_086FE7E4
                0x00000000086ff18c                gUnknown_086FF18C
                0x000000000870224c                gUnknown_0870224C
                0x0000000008702f60                gUnknown_08702F60
                0x000000000870613c                gUnknown_0870613C
                0x0000000008708210                gUnknown_08708210
                0x000000000870a724                gUnknown_0870A724
                0x000000000870ca4c                gUnknown_0870CA4C
                0x000000000870d7ec                gUnknown_0870D7EC
                0x000000000870dc84                gUnknown_0870DC84
                0x000000000870e60c                gUnknown_0870E60C
                0x000000000870ea00                gUnknown_0870EA00
                0x000000000870ee50                gUnknown_0870EE50
                0x000000000870f254                gUnknown_0870F254
                0x000000000870fbc0                gUnknown_0870FBC0
                0x000000000870ffa0                gUnknown_0870FFA0
                0x00000000087103f8                gUnknown_087103F8
                0x0000000008710d74                gUnknown_08710D74
                0x00000000087111d4                gUnknown_087111D4
                0x0000000008711640                gUnknown_08711640
                0x0000000008711acc                gUnknown_08711ACC
                0x00000000087123f8                gUnknown_087123F8
                0x0000000008712950                gUnknown_08712950
                0x0000000008712db8                gUnknown_08712DB8
                0x000000000871375c                gUnknown_0871375C
                0x000000000871aed4                gUnknown_0871AED4
                0x000000000871dc9c                gUnknown_0871DC9C
                0x000000000871ef30                gUnknown_0871EF30
                0x0000000008727348                gUnknown_08727348
                0x000000000872cf68                gUnknown_0872CF68
                0x000000000872e77c                gUnknown_0872E77C
                0x0000000008730340                gUnknown_08730340
                0x0000000008730bf0                gUnknown_08730BF0
                0x0000000008731868                gUnknown_08731868
                0x0000000008732a00                gUnknown_08732A00
                0x0000000008733304                gUnknown_08733304
                0x0000000008733d74                gUnknown_08733D74
                0x0000000008737eb4                gUnknown_08737EB4
                0x000000000873bcbc                gUnknown_0873BCBC
                0x000000000873c470                gUnknown_0873C470
                0x000000000873cc80                gUnknown_0873CC80
                0x000000000873d430                gUnknown_0873D430
                0x000000000873df74                gUnknown_0873DF74
                0x000000000873ece8                gUnknown_0873ECE8
                0x000000000873f1c0                gUnknown_0873F1C0
                0x000000000873f654                gUnknown_0873F654
                0x000000000873fab8                gUnknown_0873FAB8
                0x000000000873ff64                gUnknown_0873FF64
                0x00000000087403fc                gUnknown_087403FC
                0x0000000008740854                gUnknown_08740854
                0x0000000008740d00                gUnknown_08740D00
                0x0000000008741248                gUnknown_08741248
                0x0000000008741694                gUnknown_08741694
                0x0000000008741b00                gUnknown_08741B00
                0x000000000874216c                gUnknown_0874216C
                0x00000000087424d8                gUnknown_087424D8
                0x000000000874267c                gUnknown_0874267C
                0x0000000008742e90                gUnknown_08742E90
                0x00000000087432f0                gUnknown_087432F0
                0x00000000087436fc                gUnknown_087436FC
                0x0000000008743bec                gUnknown_08743BEC
                0x000000000874408c                gUnknown_0874408C
                0x00000000087444b4                gUnknown_087444B4
                0x00000000087449bc                gUnknown_087449BC
                0x000000000874621c                gUnknown_0874621C
                0x0000000008746c04                gUnknown_08746C04
                0x0000000008747908                gUnknown_08747908
                0x0000000008747d18                gUnknown_08747D18
                0x0000000008748108                gUnknown_08748108
                0x0000000008748bd8                gUnknown_08748BD8
                0x00000000087493a4                gUnknown_087493A4
                0x0000000008749864                gUnknown_08749864
                0x0000000008749d20                gUnknown_08749D20
                0x000000000874a750                gUnknown_0874A750
                0x000000000874aaf8                gUnknown_0874AAF8
                0x000000000874b5d0                gUnknown_0874B5D0
                0x000000000874b844                gUnknown_0874B844
                0x000000000874cafc                gUnknown_0874CAFC
                0x000000000874d4d0                gUnknown_0874D4D0
                0x000000000874ddcc                gUnknown_0874DDCC
                0x000000000874e228                gUnknown_0874E228
                0x000000000874e6d0                gUnknown_0874E6D0
                0x0000000008753aec                gUnknown_08753AEC
                0x0000000008758bb4                gUnknown_08758BB4
                0x000000000875a76c                gUnknown_0875A76C
                0x000000000875e854                gUnknown_0875E854
                0x00000000087634b0                gUnknown_087634B0
                0x0000000008763f44                gUnknown_08763F44
                0x00000000087644b8                gUnknown_087644B8
                0x0000000008764a24                gUnknown_08764A24
                0x0000000008764ec8                gUnknown_08764EC8
                0x0000000008765524                gUnknown_08765524
                0x0000000008765ff0                gUnknown_08765FF0
                0x00000000087665c8                gUnknown_087665C8
                0x0000000008766ae4                gUnknown_08766AE4
                0x000000000876701c                gUnknown_0876701C
                0x0000000008767588                gUnknown_08767588
                0x0000000008767a20                gUnknown_08767A20
                0x0000000008768070                gUnknown_08768070
                0x0000000008768ba0                gUnknown_08768BA0
                0x00000000087692c0                gUnknown_087692C0
                0x000000000876995c                gUnknown_0876995C
                0x000000000876a058                gUnknown_0876A058
                0x000000000876a7e8                gUnknown_0876A7E8
                0x000000000876ae6c                gUnknown_0876AE6C
                0x000000000876b5cc                gUnknown_0876B5CC
                0x000000000876bcbc                gUnknown_0876BCBC
                0x000000000876c1c4                gUnknown_0876C1C4
                0x000000000876c974                gUnknown_0876C974
                0x000000000876d0e8                gUnknown_0876D0E8
                0x000000000876d79c                gUnknown_0876D79C
                0x000000000876df8c                gUnknown_0876DF8C
                0x000000000876e614                gUnknown_0876E614
                0x000000000876ed88                gUnknown_0876ED88
                0x000000000876f47c                gUnknown_0876F47C
                0x000000000876fb20                gUnknown_0876FB20
                0x0000000008771cc4                gUnknown_08771CC4
                0x0000000008773848                gUnknown_08773848
                0x0000000008775640                gUnknown_08775640
                0x0000000008775e7c                gUnknown_08775E7C
                0x0000000008778d48                gUnknown_08778D48
                0x0000000008779edc                gUnknown_08779EDC
                0x000000000877ad00                gUnknown_0877AD00
                0x000000000877b9a0                gUnknown_0877B9A0
                0x000000000877cf24                gUnknown_0877CF24
                0x000000000877f2a4                gUnknown_0877F2A4
                0x000000000878306c                gUnknown_0878306C
                0x0000000008789214                gUnknown_08789214
                0x000000000878d964                gUnknown_0878D964
                0x000000000878faac                gUnknown_0878FAAC
                0x0000000008797224                gUnknown_08797224
 build/sa1/sound/songs/song001.o(.rodata)
 *fill*         0x000000000879c301        0x3 00000000
 .rodata        0x000000000879c304     0x1134 build/sa1/sound/songs/song001.o
                0x000000000879c304                song001_1
                0x000000000879c5ad                song001_2
                0x000000000879c804                song001_3
                0x000000000879c8b6                song001_4
                0x000000000879cada                song001_5
                0x000000000879cb72                song001_6
                0x000000000879cbac                song001_7
                0x000000000879d05a                song001_8
                0x000000000879d173                song001_9
                0x000000000879d194                song001_10
                0x000000000879d1b9                song001_11
                0x000000000879d2df                song001_12
                0x000000000879d400                song001
 build/sa1/sound/songs/song002.o(.rodata)
 .rodata        0x000000000879d438      0x328 build/sa1/sound/songs/song002.o
                0x000000000879d438                song002_1
                0x000000000879d4e9                song002_2
                0x000000000879d553                song002_3
                0x000000000879d6ad                song002_4
                0x000000000879d6da                song002_5
                0x000000000879d712                song002_6
                0x000000000879d740                song002
 build/sa1/sound/songs/song003.o(.rodata)
 .rodata        0x000000000879d760      0x2f4 build/sa1/sound/songs/song003.o
                0x000000000879d760                song003_1
                0x000000000879d915                song003_2
                0x000000000879d9c4                song003_3
                0x000000000879da40                song003
 build/sa1/sound/songs/song004.o(.rodata)
 .rodata        0x000000000879da54      0x66c build/sa1/sound/songs/song004.o
                0x000000000879da54                song004_1
                0x000000000879db0d                song004_2
                0x000000000879dc04                song004_3
                0x000000000879dc4c                song004_4
                0x000000000879dcde                song004_5
                0x000000000879dd5f                song004_6
                0x000000000879de3d                song004_7
                0x000000000879deb9                song004_8
                0x000000000879e098                song004
 build/sa1/sound/songs/song005.o(.rodata)
 .rodata        0x000000000879e0c0      0x3f0 build/sa1/sound/songs/song005.o
                0x000000000879e0c0                song005_1
                0x000000000879e144                song005_2
                0x000000000879e1b5                song005_3
                0x000000000879e225                song005_4
                0x000000000879e29f                song005_5
                0x000000000879e33b                song005_6
                0x000000000879e3e2                song005_7
                0x000000000879e48c                song005
 build/sa1/sound/songs/song006.o(.rodata)
 .rodata        0x000000000879e4b0      0x650 build/sa1/sound/songs/song006.o
                0x000000000879e4b0                song006_1
                0x000000000879e573                song006_2
                0x000000000879e5d1                song006_3
                0x000000000879e647                song006_4
                0x000000000879e718                song006_5
                0x000000000879e7a1                song006_6
                0x000000000879e87a                song006_7
                0x000000000879e923                song006_8
                0x000000000879ea3b                song006_9
                0x000000000879ead4                song006
 build/sa1/sound/songs/song007.o(.rodata)
 .rodata        0x000000000879eb00      0x440 build/sa1/sound/songs/song007.o
                0x000000000879eb00                song007_1
                0x000000000879eb74                song007_2
                0x000000000879ec3c                song007_3
                0x000000000879ecc2                song007_4
                0x000000000879ecec                song007_5
                0x000000000879edc0                song007_6
                0x000000000879ee39                song007_7
                0x000000000879eeb6                song007_8
                0x000000000879ef18                song007
 build/sa1/sound/songs/song008.o(.rodata)
 .rodata        0x000000000879ef40      0x26c build/sa1/sound/songs/song008.o
                0x000000000879ef40                song008_1
                0x000000000879ef93                song008_2
                0x000000000879efe3                song008_3
                0x000000000879f030                song008_4
                0x000000000879f081                song008_5
                0x000000000879f0e1                song008_6
                0x000000000879f18c                song008
 build/sa1/sound/songs/song009.o(.rodata)
 .rodata        0x000000000879f1ac      0x26c build/sa1/sound/songs/song009.o
                0x000000000879f1ac                song009_1
                0x000000000879f24b                song009_2
                0x000000000879f2e8                song009_3
                0x000000000879f320                song009_4
                0x000000000879f35a                song009_5
                0x000000000879f38d                song009_6
                0x000000000879f3f8                song009
 build/sa1/sound/songs/song010.o(.rodata)
 .rodata        0x000000000879f418      0x5fc build/sa1/sound/songs/song010.o
                0x000000000879f418                song010_1
                0x000000000879f4db                song010_2
                0x000000000879f545                song010_3
                0x000000000879f63b                song010_4
                0x000000000879f67b                song010_5
                0x000000000879f6e5                song010_6
                0x000000000879f7a6                song010_7
                0x000000000879f9f0                song010
 build/sa1/sound/songs/song011.o(.rodata)
 .rodata        0x000000000879fa14      0xf8c build/sa1/sound/songs/song011.o
                0x000000000879fa14                song011_1
                0x000000000879fb53                song011_2
                0x000000000879fd19                song011_3
                0x000000000879feb1                song011_4
                0x00000000087a06f0                song011_5
                0x00000000087a0825                song011_6
                0x00000000087a0980                song011
 build/sa1/sound/songs/song012.o(.rodata)
 .rodata        0x00000000087a09a0      0x970 build/sa1/sound/songs/song012.o
                0x00000000087a09a0                song012_1
                0x00000000087a0b5e                song012_2
                0x00000000087a0d97                song012_3
                0x00000000087a0eb5                song012_4
                0x00000000087a0fae                song012_5
                0x00000000087a1078                song012_6
                0x00000000087a10ca                song012_7
                0x00000000087a11f2                song012_8
                0x00000000087a12e8                song012
 build/sa1/sound/songs/song013.o(.rodata)
 .rodata        0x00000000087a1310     0x12b4 build/sa1/sound/songs/song013.o
                0x00000000087a1310                song013_1
                0x00000000087a1544                song013_2
                0x00000000087a1709                song013_3
                0x00000000087a1846                song013_4
                0x00000000087a1abd                song013_5
                0x00000000087a1c67                song013_6
                0x00000000087a1ced                song013_7
                0x00000000087a1d74                song013_8
                0x00000000087a1e83                song013_9
                0x00000000087a1faa                song013_10
                0x00000000087a20b5                song013_11
                0x00000000087a21df                song013_12
                0x00000000087a22f5                song013_13
                0x00000000087a2429                song013_14
                0x00000000087a24dd                song013_15
                0x00000000087a2580                song013
 build/sa1/sound/songs/song014.o(.rodata)
 .rodata        0x00000000087a25c4     0x1cbc build/sa1/sound/songs/song014.o
                0x00000000087a25c4                song014_1
                0x00000000087a2856                song014_2
                0x00000000087a293e                song014_3
                0x00000000087a2d3a                song014_4
                0x00000000087a2f6f                song014_5
                0x00000000087a33de                song014_6
                0x00000000087a3b02                song014_7
                0x00000000087a3bd2                song014_8
                0x00000000087a4258                song014
 build/sa1/sound/songs/song015.o(.rodata)
 .rodata        0x00000000087a4280     0x17a8 build/sa1/sound/songs/song015.o
                0x00000000087a4280                song015_1
                0x00000000087a46cf                song015_2
                0x00000000087a4a1f                song015_3
                0x00000000087a4cdc                song015_4
                0x00000000087a5007                song015_5
                0x00000000087a5092                song015_6
                0x00000000087a5346                song015_7
                0x00000000087a55b4                song015_8
                0x00000000087a5a00                song015
 build/sa1/sound/songs/song016.o(.rodata)
 .rodata        0x00000000087a5a28     0x11dc build/sa1/sound/songs/song016.o
                0x00000000087a5a28                song016_1
                0x00000000087a5d84                song016_2
                0x00000000087a60ac                song016_3
                0x00000000087a6270                song016_4
                0x00000000087a63d2                song016_5
                0x00000000087a64f3                song016_6
                0x00000000087a69e8                song016_7
                0x00000000087a6a7a                song016_8
                0x00000000087a6b42                song016_9
                0x00000000087a6bd8                song016
 build/sa1/sound/songs/song017.o(.rodata)
 .rodata        0x00000000087a6c04     0x1018 build/sa1/sound/songs/song017.o
                0x00000000087a6c04                song017_1
                0x00000000087a6e0d                song017_2
                0x00000000087a709d                song017_3
                0x00000000087a729b                song017_4
                0x00000000087a73b4                song017_5
                0x00000000087a7470                song017_6
                0x00000000087a7861                song017_7
                0x00000000087a7b5b                song017_8
                0x00000000087a7bf4                song017
 build/sa1/sound/songs/song018.o(.rodata)
 .rodata        0x00000000087a7c1c      0x968 build/sa1/sound/songs/song018.o
                0x00000000087a7c1c                song018_1
                0x00000000087a7f34                song018_2
                0x00000000087a8012                song018_3
                0x00000000087a807e                song018_4
                0x00000000087a8175                song018_5
                0x00000000087a8245                song018_6
                0x00000000087a8315                song018_7
                0x00000000087a8357                song018_8
                0x00000000087a83d1                song018_9
                0x00000000087a8558                song018
 build/sa1/sound/songs/song019.o(.rodata)
 .rodata        0x00000000087a8584      0xfc8 build/sa1/sound/songs/song019.o
                0x00000000087a8584                song019_1
                0x00000000087a86af                song019_2
                0x00000000087a87c9                song019_3
                0x00000000087a8996                song019_4
                0x00000000087a8b27                song019_5
                0x00000000087a8c39                song019_6
                0x00000000087a8d97                song019_7
                0x00000000087a8ecd                song019_8
                0x00000000087a9524                song019
 build/sa1/sound/songs/song020.o(.rodata)
 .rodata        0x00000000087a954c      0xb1c build/sa1/sound/songs/song020.o
                0x00000000087a954c                song020_1
                0x00000000087a9677                song020_2
                0x00000000087a96df                song020_3
                0x00000000087a98b8                song020_4
                0x00000000087a9969                song020_5
                0x00000000087a99db                song020_6
                0x00000000087a9baa                song020_7
                0x00000000087a9d46                song020_8
                0x00000000087a9e46                song020_9
                0x00000000087aa03c                song020
 build/sa1/sound/songs/song021.o(.rodata)
 .rodata        0x00000000087aa068      0x8f8 build/sa1/sound/songs/song021.o
                0x00000000087aa068                song021_1
                0x00000000087aa1eb                song021_2
                0x00000000087aa38d                song021_3
                0x00000000087aa538                song021_4
                0x00000000087aa673                song021_5
                0x00000000087aa6df                song021_6
                0x00000000087aa836                song021_7
                0x00000000087aa93c                song021
 build/sa1/sound/songs/song022.o(.rodata)
 .rodata        0x00000000087aa960      0xa6c build/sa1/sound/songs/song022.o
                0x00000000087aa960                song022_1
                0x00000000087aa9d9                song022_2
                0x00000000087aaa50                song022_3
                0x00000000087aab02                song022_4
                0x00000000087aac65                song022_5
                0x00000000087aace4                song022_6
                0x00000000087aaf09                song022_7
                0x00000000087ab0bc                song022_8
                0x00000000087ab15c                song022_9
                0x00000000087ab3a0                song022
 build/sa1/sound/songs/song023.o(.rodata)
 .rodata        0x00000000087ab3cc      0xd64 build/sa1/sound/songs/song023.o
                0x00000000087ab3cc                song023_1
                0x00000000087ab5d2                song023_2
                0x00000000087ab734                song023_3
                0x00000000087ab8fc                song023_4
                0x00000000087aba86                song023_5
                0x00000000087abb32                song023_6
                0x00000000087abe33                song023_7
                0x00000000087ac10c                song023
 build/sa1/sound/songs/song024.o(.rodata)
 .rodata        0x00000000087ac130     0x14bc build/sa1/sound/songs/song024.o
                0x00000000087ac130                song024_1
                0x00000000087ac614                song024_2
                0x00000000087ac7ea                song024_3
                0x00000000087aca86                song024_4
                0x00000000087ad0b9                song024_5
                0x00000000087ad11e                song024_6
                0x00000000087ad183                song024_7
                0x00000000087ad1f2                song024_8
                0x00000000087ad31b                song024_9
                0x00000000087ad456                song024_10
                0x00000000087ad5bc                song024
 build/sa1/sound/songs/song025.o(.rodata)
 .rodata        0x00000000087ad5ec      0x7a8 build/sa1/sound/songs/song025.o
                0x00000000087ad5ec                song025_1
                0x00000000087ad6e2                song025_2
                0x00000000087ad822                song025_3
                0x00000000087ad87b                song025_4
                0x00000000087ad8b2                song025_5
                0x00000000087adc6d                song025_6
                0x00000000087add35                song025_7
                0x00000000087add70                song025
 build/sa1/sound/songs/song026.o(.rodata)
 .rodata        0x00000000087add94      0x870 build/sa1/sound/songs/song026.o
                0x00000000087add94                song026_1
                0x00000000087adde8                song026_2
                0x00000000087ade75                song026_3
                0x00000000087adf02                song026_4
                0x00000000087adfd7                song026_5
                0x00000000087ae0ab                song026_6
                0x00000000087ae15b                song026_7
                0x00000000087ae308                song026_8
                0x00000000087ae599                song026_9
                0x00000000087ae5d8                song026
 build/sa1/sound/songs/song027.o(.rodata)
 .rodata        0x00000000087ae604      0x1ac build/sa1/sound/songs/song027.o
                0x00000000087ae604                song027_1
                0x00000000087ae6a2                song027_2
                0x00000000087ae73e                song027_3
                0x00000000087ae79c                song027
 build/sa1/sound/songs/song028.o(.rodata)
 .rodata        0x00000000087ae7b0      0x3ec build/sa1/sound/songs/song028.o
                0x00000000087ae7b0                song028_1
                0x00000000087ae830                song028_2
                0x00000000087ae8b1                song028_3
                0x00000000087ae925                song028_4
                0x00000000087aea9f                song028_5
                0x00000000087aeafb                song028_6
                0x00000000087aeb7c                song028
 build/sa1/sound/songs/song029.o(.rodata)
 .rodata        0x00000000087aeb9c     0x1c98 build/sa1/sound/songs/song029.o
                0x00000000087aeb9c                song029_1
                0x00000000087af636                song029_2
                0x00000000087af71a                song029_3
                0x00000000087af8c7                song029_4
                0x00000000087afcca                song029_5
                0x00000000087afd11                song029_6
                0x00000000087afdc7                song029_7
                0x00000000087afe02                song029_8
                0x00000000087b0615                song029_9
                0x00000000087b0791                song029_10
                0x00000000087b0804                song029
 build/sa1/sound/songs/song030.o(.rodata)
 .rodata        0x00000000087b0834     0x1390 build/sa1/sound/songs/song030.o
                0x00000000087b0834                song030_1
                0x00000000087b097e                song030_2
                0x00000000087b0d48                song030_3
                0x00000000087b108e                song030_4
                0x00000000087b151a                song030_5
                0x00000000087b1901                song030_6
                0x00000000087b19bf                song030_7
                0x00000000087b1a47                song030_8
                0x00000000087b1b9c                song030
 build/sa1/sound/songs/song031.o(.rodata)
 .rodata        0x00000000087b1bc4      0x98c build/sa1/sound/songs/song031.o
                0x00000000087b1bc4                song031_1
                0x00000000087b1d4b                song031_2
                0x00000000087b1f7f                song031_3
                0x00000000087b20d0                song031_4
                0x00000000087b2186                song031_5
                0x00000000087b2319                song031_6
                0x00000000087b239e                song031_7
                0x00000000087b252c                song031
 build/sa1/sound/songs/song032.o(.rodata)
 .rodata        0x00000000087b2550      0xdb0 build/sa1/sound/songs/song032.o
                0x00000000087b2550                song032_1
                0x00000000087b2600                song032_2
                0x00000000087b27b0                song032_3
                0x00000000087b292b                song032_4
                0x00000000087b2b13                song032_5
                0x00000000087b2bf7                song032_6
                0x00000000087b2d48                song032_7
                0x00000000087b2e08                song032_8
                0x00000000087b2fc1                song032_9
                0x00000000087b308d                song032_10
                0x00000000087b32d0                song032
 build/sa1/sound/songs/song033.o(.rodata)
 .rodata        0x00000000087b3300      0x108 build/sa1/sound/songs/song033.o
                0x00000000087b3300                song033_1
                0x00000000087b3331                song033_2
                0x00000000087b335f                song033_3
                0x00000000087b338d                song033_4
                0x00000000087b33f0                song033
 build/sa1/sound/songs/song034.o(.rodata)
 .rodata        0x00000000087b3408      0x108 build/sa1/sound/songs/song034.o
                0x00000000087b3408                song034_1
                0x00000000087b3440                song034_2
                0x00000000087b3481                song034_3
                0x00000000087b34b0                song034_4
                0x00000000087b34f8                song034
 build/sa1/sound/songs/song035.o(.rodata)
 .rodata        0x00000000087b3510      0x294 build/sa1/sound/songs/song035.o
                0x00000000087b3510                song035_1
                0x00000000087b3535                song035_2
                0x00000000087b3556                song035_3
                0x00000000087b357b                song035_4
                0x00000000087b35a1                song035_5
                0x00000000087b35c4                song035_6
                0x00000000087b364d                song035_7
                0x00000000087b36d6                song035_8
                0x00000000087b3758                song035_9
                0x00000000087b3778                song035
 build/sa1/sound/songs/song036.o(.rodata)
 .rodata        0x00000000087b37a4      0x210 build/sa1/sound/songs/song036.o
                0x00000000087b37a4                song036_1
                0x00000000087b37ec                song036_2
                0x00000000087b382f                song036_3
                0x00000000087b3862                song036_4
                0x00000000087b388b                song036_5
                0x00000000087b38cc                song036_6
                0x00000000087b38ff                song036_7
                0x00000000087b3990                song036
 build/sa1/sound/songs/song037.o(.rodata)
 .rodata        0x00000000087b39b4      0x1bc build/sa1/sound/songs/song037.o
                0x00000000087b39b4                song037_1
                0x00000000087b39e6                song037_2
                0x00000000087b3a6f                song037_3
                0x00000000087b3aa8                song037_4
                0x00000000087b3b58                song037
 build/sa1/sound/songs/song038.o(.rodata)
 .rodata        0x00000000087b3b70     0x1020 build/sa1/sound/songs/song038.o
                0x00000000087b3b70                song038_1
                0x00000000087b3d3d                song038_2
                0x00000000087b3e49                song038_3
                0x00000000087b4021                song038_4
                0x00000000087b41e8                song038_5
                0x00000000087b4531                song038_6
                0x00000000087b45b2                song038_7
                0x00000000087b4674                song038_8
                0x00000000087b4857                song038_9
                0x00000000087b4a0a                song038_10
                0x00000000087b4b60                song038
 build/sa1/sound/songs/song039.o(.rodata)
 .rodata        0x00000000087b4b90     0x1380 build/sa1/sound/songs/song039.o
                0x00000000087b4b90                song039_1
                0x00000000087b4deb                song039_2
                0x00000000087b506c                song039_3
                0x00000000087b509c                song039_4
                0x00000000087b51f2                song039_5
                0x00000000087b5340                song039_6
                0x00000000087b560c                song039_7
                0x00000000087b56d4                song039_8
                0x00000000087b5745                song039_9
                0x00000000087b5785                song039_10
                0x00000000087b5b50                song039_11
                0x00000000087b5d13                song039_12
                0x00000000087b5df2                song039_13
                0x00000000087b5e6e                song039_14
                0x00000000087b5ed0                song039
 build/sa1/sound/songs/song040.o(.rodata)
 .rodata        0x00000000087b5f10     0x21ac build/sa1/sound/songs/song040.o
                0x00000000087b5f10                song040_1
                0x00000000087b64f8                song040_2
                0x00000000087b68cb                song040_3
                0x00000000087b693f                song040_4
                0x00000000087b6c2d                song040_5
                0x00000000087b6fa0                song040_6
                0x00000000087b7547                song040_7
                0x00000000087b75a8                song040_8
                0x00000000087b798f                song040_9
                0x00000000087b7a96                song040_10
                0x00000000087b7e63                song040_11
                0x00000000087b7f59                song040_12
                0x00000000087b8084                song040
 build/sa1/sound/songs/song041.o(.rodata)
 .rodata        0x00000000087b80bc      0x128 build/sa1/sound/songs/song041.o
                0x00000000087b80bc                song041_1
                0x00000000087b8117                song041_2
                0x00000000087b8139                song041_3
                0x00000000087b816c                song041_4
                0x00000000087b819e                song041_5
                0x00000000087b81c8                song041
 build/sa1/sound/songs/song042.o(.rodata)
 .rodata        0x00000000087b81e4      0xc60 build/sa1/sound/songs/song042.o
                0x00000000087b81e4                song042_1
                0x00000000087b8425                song042_2
                0x00000000087b86b8                song042_3
                0x00000000087b8827                song042_4
                0x00000000087b8a2f                song042_5
                0x00000000087b8cec                song042_6
                0x00000000087b8d4c                song042_7
                0x00000000087b8e20                song042
 build/sa1/sound/songs/song043.o(.rodata)
 .rodata        0x00000000087b8e44       0xf8 build/sa1/sound/songs/song043.o
                0x00000000087b8e44                song043_1
                0x00000000087b8e7b                song043_2
                0x00000000087b8ea6                song043_3
                0x00000000087b8ed9                song043_4
                0x00000000087b8f07                song043_5
                0x00000000087b8f20                song043
 build/sa1/sound/songs/song044.o(.rodata)
 .rodata        0x00000000087b8f3c      0x1bc build/sa1/sound/songs/song044.o
                0x00000000087b8f3c                song044_1
                0x00000000087b8fa6                song044_2
                0x00000000087b8fcd                song044_3
                0x00000000087b904a                song044_4
                0x00000000087b9098                song044_5
                0x00000000087b90b8                song044_6
                0x00000000087b90d8                song044
 build/sa1/sound/songs/song045.o(.rodata)
 .rodata        0x00000000087b90f8      0x16c build/sa1/sound/songs/song045.o
                0x00000000087b90f8                song045_1
                0x00000000087b9117                song045_2
                0x00000000087b9134                song045_3
                0x00000000087b9151                song045_4
                0x00000000087b916c                song045_5
                0x00000000087b9187                song045_6
                0x00000000087b91a2                song045_7
                0x00000000087b91ed                song045_8
                0x00000000087b923c                song045
 build/sa1/sound/songs/song046.o(.rodata)
 .rodata        0x00000000087b9264      0x17c build/sa1/sound/songs/song046.o
                0x00000000087b9264                song046_1
                0x00000000087b9297                song046_2
                0x00000000087b92c8                song046_3
                0x00000000087b9309                song046_4
                0x00000000087b9340                song046_5
                0x00000000087b93c4                song046
 build/sa1/sound/songs/song047.o(.rodata)
 .rodata        0x00000000087b93e0      0x534 build/sa1/sound/songs/song047.o
                0x00000000087b93e0                song047_1
                0x00000000087b94c3                song047_2
                0x00000000087b95a2                song047_3
                0x00000000087b965a                song047_4
                0x00000000087b96e4                song047_5
                0x00000000087b972b                song047_6
                0x00000000087b98f4                song047
 build/sa1/sound/songs/song048.o(.rodata)
 .rodata        0x00000000087b9914      0x5c0 build/sa1/sound/songs/song048.o
                0x00000000087b9914                song048_1
                0x00000000087b99b4                song048_2
                0x00000000087b9ab5                song048_3
                0x00000000087b9bd3                song048_4
                0x00000000087b9c1a                song048_5
                0x00000000087b9ce2                song048_6
                0x00000000087b9d36                song048_7
                0x00000000087b9d83                song048_8
                0x00000000087b9eac                song048
 build/sa1/sound/songs/song049.o(.rodata)
 .rodata        0x00000000087b9ed4      0x394 build/sa1/sound/songs/song049.o
                0x00000000087b9ed4                song049_1
                0x00000000087b9f16                song049_2
                0x00000000087b9fba                song049_3
                0x00000000087ba03a                song049_4
                0x00000000087ba09a                song049_5
                0x00000000087ba0dd                song049_6
                0x00000000087ba192                song049_7
                0x00000000087ba212                song049_8
                0x00000000087ba240                song049
 build/sa1/sound/songs/song050.o(.rodata)
 .rodata        0x00000000087ba268      0x5ac build/sa1/sound/songs/song050.o
                0x00000000087ba268                song050_1
                0x00000000087ba2fa                song050_2
                0x00000000087ba389                song050_3
                0x00000000087ba45f                song050_4
                0x00000000087ba4cb                song050_5
                0x00000000087ba561                song050_6
                0x00000000087ba5a2                song050_7
                0x00000000087ba61b                song050_8
                0x00000000087ba749                song050_9
                0x00000000087ba7e8                song050
 build/sa1/sound/songs/song051.o(.rodata)
 .rodata        0x00000000087ba814      0x804 build/sa1/sound/songs/song051.o
                0x00000000087ba814                song051_1
                0x00000000087ba8f8                song051_2
                0x00000000087baa81                song051_3
                0x00000000087baaf8                song051_4
                0x00000000087bad3c                song051_5
                0x00000000087bae01                song051_6
                0x00000000087baeb0                song051_7
                0x00000000087baf99                song051_8
                0x00000000087baff0                song051
 build/sa1/sound/songs/song052.o(.rodata)
 .rodata        0x00000000087bb018      0x958 build/sa1/sound/songs/song052.o
                0x00000000087bb018                song052_1
                0x00000000087bb181                song052_2
                0x00000000087bb4a9                song052_3
                0x00000000087bb721                song052_4
                0x00000000087bb83a                song052_5
                0x00000000087bb954                song052
 build/sa1/sound/songs/song053.o(.rodata)
 .rodata        0x00000000087bb970      0x870 build/sa1/sound/songs/song053.o
                0x00000000087bb970                song053_1
                0x00000000087bbb0b                song053_2
                0x00000000087bbc40                song053_3
                0x00000000087bbec4                song053_4
                0x00000000087bc042                song053_5
                0x00000000087bc1c4                song053
 build/sa1/sound/songs/song054.o(.rodata)
 .rodata        0x00000000087bc1e0      0x174 build/sa1/sound/songs/song054.o
                0x00000000087bc1e0                song054_1
                0x00000000087bc208                song054_2
                0x00000000087bc25a                song054_3
                0x00000000087bc29e                song054_4
                0x00000000087bc2eb                song054_5
                0x00000000087bc338                song054
 build/sa1/sound/songs/song102.o(.rodata)
 .rodata        0x00000000087bc354       0x1c build/sa1/sound/songs/song102.o
                0x00000000087bc354                song102_1
                0x00000000087bc364                song102
 build/sa1/sound/songs/song103.o(.rodata)
 .rodata        0x00000000087bc370       0x4c build/sa1/sound/songs/song103.o
                0x00000000087bc370                song103_1
                0x00000000087bc3b0                song103
 build/sa1/sound/songs/song104.o(.rodata)
 .rodata        0x00000000087bc3bc       0x30 build/sa1/sound/songs/song104.o
                0x00000000087bc3bc                song104_1
                0x00000000087bc3e0                song104
 build/sa1/sound/songs/song105.o(.rodata)
 .rodata        0x00000000087bc3ec       0x28 build/sa1/sound/songs/song105.o
                0x00000000087bc3ec                song105_1
                0x00000000087bc408                song105
 build/sa1/sound/songs/song106.o(.rodata)
 .rodata        0x00000000087bc414       0x28 build/sa1/sound/songs/song106.o
                0x00000000087bc414                song106_1
                0x00000000087bc430                song106
 build/sa1/sound/songs/song107.o(.rodata)
 .rodata        0x00000000087bc43c       0x24 build/sa1/sound/songs/song107.o
                0x00000000087bc43c                song107_1
                0x00000000087bc454                song107
 build/sa1/sound/songs/song108.o(.rodata)
 .rodata        0x00000000087bc460       0x20 build/sa1/sound/songs/song108.o
                0x00000000087bc460                song108_1
                0x00000000087bc474                song108
 build/sa1/sound/songs/song109.o(.rodata)
 .rodata        0x00000000087bc480       0x20 build/sa1/sound/songs/song109.o
                0x00000000087bc480                song109_1
                0x00000000087bc494                song109
 build/sa1/sound/songs/song110.o(.rodata)
 .rodata        0x00000000087bc4a0       0xcc build/sa1/sound/songs/song110.o
                0x00000000087bc4a0                song110_1
                0x00000000087bc560                song110
 build/sa1/sound/songs/song111.o(.rodata)
 .rodata        0x00000000087bc56c       0x24 build/sa1/sound/songs/song111.o
                0x00000000087bc56c                song111_1
                0x00000000087bc584                song111
 build/sa1/sound/songs/song112.o(.rodata)
 .rodata        0x00000000087bc590       0x64 build/sa1/sound/songs/song112.o
                0x00000000087bc590                song112_1
                0x00000000087bc5e8                song112
 build/sa1/sound/songs/song113.o(.rodata)
 .rodata        0x00000000087bc5f4       0xa8 build/sa1/sound/songs/song113.o
                0x00000000087bc5f4                song113_1
                0x00000000087bc690                song113
 build/sa1/sound/songs/song114.o(.rodata)
 .rodata        0x00000000087bc69c       0x3c build/sa1/sound/songs/song114.o
                0x00000000087bc69c                song114_1
                0x00000000087bc6cc                song114
 build/sa1/sound/songs/song115.o(.rodata)
 .rodata        0x00000000087bc6d8       0x5c build/sa1/sound/songs/song115.o
                0x00000000087bc6d8                song115_1
                0x00000000087bc728                song115
 build/sa1/sound/songs/song116.o(.rodata)
 .rodata        0x00000000087bc734       0x4c build/sa1/sound/songs/song116.o
                0x00000000087bc734                song116_1
                0x00000000087bc774                song116
 build/sa1/sound/songs/song117.o(.rodata)
 .rodata        0x00000000087bc780       0x1c build/sa1/sound/songs/song117.o
                0x00000000087bc780                song117_1
                0x00000000087bc790                song117
 build/sa1/sound/songs/song118.o(.rodata)
 .rodata        0x00000000087bc79c       0x1c build/sa1/sound/songs/song118.o
                0x00000000087bc79c                song118_1
                0x00000000087bc7ac                song118
 build/sa1/sound/songs/song119.o(.rodata)
 .rodata        0x00000000087bc7b8       0x24 build/sa1/sound/songs/song119.o
                0x00000000087bc7b8                song119_1
                0x00000000087bc7d0                song119
 build/sa1/sound/songs/song120.o(.rodata)
 .rodata        0x00000000087bc7dc       0x68 build/sa1/sound/songs/song120.o
                0x00000000087bc7dc                song120_1
                0x00000000087bc838                song120
 build/sa1/sound/songs/song121.o(.rodata)
 .rodata        0x00000000087bc844       0x24 build/sa1/sound/songs/song121.o
                0x00000000087bc844                song121_1
                0x00000000087bc85c                song121
 build/sa1/sound/songs/song122.o(.rodata)
 .rodata        0x00000000087bc868      0x12c build/sa1/sound/songs/song122.o
                0x00000000087bc868                song122_1
                0x00000000087bc988                song122
 build/sa1/sound/songs/song123.o(.rodata)
 .rodata        0x00000000087bc994       0x1c build/sa1/sound/songs/song123.o
                0x00000000087bc994                song123_1
                0x00000000087bc9a4                song123
 build/sa1/sound/songs/song124.o(.rodata)
 .rodata        0x00000000087bc9b0       0x1c build/sa1/sound/songs/song124.o
                0x00000000087bc9b0                song124_1
                0x00000000087bc9c0                song124
 build/sa1/sound/songs/song125.o(.rodata)
 .rodata        0x00000000087bc9cc       0xe0 build/sa1/sound/songs/song125.o
                0x00000000087bc9cc                song125_1
                0x00000000087bcaa0                song125
 build/sa1/sound/songs/song126.o(.rodata)
 .rodata        0x00000000087bcaac       0xe0 build/sa1/sound/songs/song126.o
                0x00000000087bcaac                song126_1
                0x00000000087bcb80                song126
 build/sa1/sound/songs/song127.o(.rodata)
 .rodata        0x00000000087bcb8c       0xf4 build/sa1/sound/songs/song127.o
                0x00000000087bcb8c                song127_1
                0x00000000087bcc74                song127
 build/sa1/sound/songs/song128.o(.rodata)
 .rodata        0x00000000087bcc80       0x1c build/sa1/sound/songs/song128.o
                0x00000000087bcc80                song128_1
                0x00000000087bcc90                song128
 build/sa1/sound/songs/song129.o(.rodata)
 .rodata        0x00000000087bcc9c       0x1c build/sa1/sound/songs/song129.o
                0x00000000087bcc9c                song129_1
                0x00000000087bccac                song129
 build/sa1/sound/songs/song130.o(.rodata)
 .rodata        0x00000000087bccb8       0x74 build/sa1/sound/songs/song130.o
                0x00000000087bccb8                song130_1
                0x00000000087bcd20                song130
 build/sa1/sound/songs/song131.o(.rodata)
 .rodata        0x00000000087bcd2c       0x74 build/sa1/sound/songs/song131.o
                0x00000000087bcd2c                song131_1
                0x00000000087bcd94                song131
 build/sa1/sound/songs/song132.o(.rodata)
 .rodata        0x00000000087bcda0       0x4c build/sa1/sound/songs/song132.o
                0x00000000087bcda0                song132_1
                0x00000000087bcde0                song132
 build/sa1/sound/songs/song133.o(.rodata)
 .rodata        0x00000000087bcdec       0x74 build/sa1/sound/songs/song133.o
                0x00000000087bcdec                song133_1
                0x00000000087bce54                song133
 build/sa1/sound/songs/song134.o(.rodata)
 .rodata        0x00000000087bce60       0x3c build/sa1/sound/songs/song134.o
                0x00000000087bce60                song134_1
                0x00000000087bce90                song134
 build/sa1/sound/songs/song135.o(.rodata)
 .rodata        0x00000000087bce9c       0x20 build/sa1/sound/songs/song135.o
                0x00000000087bce9c                song135_1
                0x00000000087bceb0                song135
 build/sa1/sound/songs/song136.o(.rodata)
 .rodata        0x00000000087bcebc       0x94 build/sa1/sound/songs/song136.o
                0x00000000087bcebc                song136_1
                0x00000000087bcf44                song136
 build/sa1/sound/songs/song137.o(.rodata)
 .rodata        0x00000000087bcf50       0x24 build/sa1/sound/songs/song137.o
                0x00000000087bcf50                song137_1
                0x00000000087bcf68                song137
 build/sa1/sound/songs/song138.o(.rodata)
 .rodata        0x00000000087bcf74       0x60 build/sa1/sound/songs/song138.o
                0x00000000087bcf74                song138_1
                0x00000000087bcfb3                song138_2
                0x00000000087bcfc4                song138
 build/sa1/sound/songs/song139.o(.rodata)
 .rodata        0x00000000087bcfd4       0x28 build/sa1/sound/songs/song139.o
                0x00000000087bcfd4                song139_1
                0x00000000087bcff0                song139
 build/sa1/sound/songs/song140.o(.rodata)
 .rodata        0x00000000087bcffc       0x20 build/sa1/sound/songs/song140.o
                0x00000000087bcffc                song140_1
                0x00000000087bd010                song140
 build/sa1/sound/songs/song141.o(.rodata)
 .rodata        0x00000000087bd01c       0x20 build/sa1/sound/songs/song141.o
                0x00000000087bd01c                song141_1
                0x00000000087bd030                song141
 build/sa1/sound/songs/song142.o(.rodata)
 .rodata        0x00000000087bd03c       0x2c build/sa1/sound/songs/song142.o
                0x00000000087bd03c                song142_1
                0x00000000087bd05c                song142
 build/sa1/sound/songs/song143.o(.rodata)
 .rodata        0x00000000087bd068       0xd0 build/sa1/sound/songs/song143.o
                0x00000000087bd068                song143_1
                0x00000000087bd12c                song143
 build/sa1/sound/songs/song144.o(.rodata)
 .rodata        0x00000000087bd138       0x24 build/sa1/sound/songs/song144.o
                0x00000000087bd138                song144_1
                0x00000000087bd150                song144
 build/sa1/sound/songs/song145.o(.rodata)
 .rodata        0x00000000087bd15c       0xd0 build/sa1/sound/songs/song145.o
                0x00000000087bd15c                song145_1
                0x00000000087bd220                song145
 build/sa1/sound/songs/song146.o(.rodata)
 .rodata        0x00000000087bd22c       0x54 build/sa1/sound/songs/song146.o
                0x00000000087bd22c                song146_1
                0x00000000087bd274                song146
 build/sa1/sound/songs/song147.o(.rodata)
 .rodata        0x00000000087bd280       0x54 build/sa1/sound/songs/song147.o
                0x00000000087bd280                song147_1
                0x00000000087bd2c8                song147
 build/sa1/sound/songs/song148.o(.rodata)
 .rodata        0x00000000087bd2d4       0x4c build/sa1/sound/songs/song148.o
                0x00000000087bd2d4                song148_1
                0x00000000087bd314                song148
 build/sa1/sound/songs/song149.o(.rodata)
 .rodata        0x00000000087bd320       0xcc build/sa1/sound/songs/song149.o
                0x00000000087bd320                song149_1
                0x00000000087bd3e0                song149
 build/sa1/sound/songs/song150.o(.rodata)
 .rodata        0x00000000087bd3ec       0x2c build/sa1/sound/songs/song150.o
                0x00000000087bd3ec                song150_1
                0x00000000087bd40c                song150
 build/sa1/sound/songs/song151.o(.rodata)
 .rodata        0x00000000087bd418       0x2c build/sa1/sound/songs/song151.o
                0x00000000087bd418                song151_1
                0x00000000087bd438                song151
 build/sa1/sound/songs/song152.o(.rodata)
 .rodata        0x00000000087bd444       0x2c build/sa1/sound/songs/song152.o
                0x00000000087bd444                song152_1
                0x00000000087bd464                song152
 build/sa1/sound/songs/song153.o(.rodata)
 .rodata        0x00000000087bd470       0x28 build/sa1/sound/songs/song153.o
                0x00000000087bd470                song153_1
                0x00000000087bd48c                song153
 build/sa1/sound/songs/song154.o(.rodata)
 .rodata        0x00000000087bd498       0x50 build/sa1/sound/songs/song154.o
                0x00000000087bd498                song154_1
                0x00000000087bd4b8                song154_2
                0x00000000087bd4d8                song154
 build/sa1/sound/songs/song155.o(.rodata)
 .rodata        0x00000000087bd4e8      0x198 build/sa1/sound/songs/song155.o
                0x00000000087bd4e8                song155_1
                0x00000000087bd552                song155_2
                0x00000000087bd585                song155_3
                0x00000000087bd5e0                song155_4
                0x00000000087bd622                song155_5
                0x00000000087bd664                song155
 build/sa1/sound/songs/song156.o(.rodata)
 .rodata        0x00000000087bd680       0x1c build/sa1/sound/songs/song156.o
                0x00000000087bd680                song156_1
                0x00000000087bd690                song156
 build/sa1/sound/songs/song157.o(.rodata)
 .rodata        0x00000000087bd69c       0x1c build/sa1/sound/songs/song157.o
                0x00000000087bd69c                song157_1
                0x00000000087bd6ac                song157
 build/sa1/sound/songs/song158.o(.rodata)
 .rodata        0x00000000087bd6b8       0x1c build/sa1/sound/songs/song158.o
                0x00000000087bd6b8                song158_1
                0x00000000087bd6c8                song158
 build/sa1/sound/songs/song159.o(.rodata)
 .rodata        0x00000000087bd6d4       0x1c build/sa1/sound/songs/song159.o
                0x00000000087bd6d4                song159_1
                0x00000000087bd6e4                song159
 build/sa1/sound/songs/song160.o(.rodata)
 .rodata        0x00000000087bd6f0       0x1c build/sa1/sound/songs/song160.o
                0x00000000087bd6f0                song160_1
                0x00000000087bd700                song160
 build/sa1/sound/songs/song161.o(.rodata)
 .rodata        0x00000000087bd70c       0x34 build/sa1/sound/songs/song161.o
                0x00000000087bd70c                song161_1
                0x00000000087bd734                song161
 build/sa1/sound/songs/song162.o(.rodata)
 .rodata        0x00000000087bd740       0x40 build/sa1/sound/songs/song162.o
                0x00000000087bd740                song162_1
                0x00000000087bd774                song162
 build/sa1/sound/songs/song163.o(.rodata)
 .rodata        0x00000000087bd780       0x1c build/sa1/sound/songs/song163.o
                0x00000000087bd780                song163_1
                0x00000000087bd790                song163
 build/sa1/sound/songs/song164.o(.rodata)
 .rodata        0x00000000087bd79c       0x1c build/sa1/sound/songs/song164.o
                0x00000000087bd79c                song164_1
                0x00000000087bd7ac                song164
 build/sa1/sound/songs/song166.o(.rodata)
 .rodata        0x00000000087bd7b8       0x60 build/sa1/sound/songs/song166.o
                0x00000000087bd7b8                song166_1
                0x00000000087bd80c                song166
 build/sa1/sound/songs/song167.o(.rodata)
 .rodata        0x00000000087bd818       0x60 build/sa1/sound/songs/song167.o
                0x00000000087bd818                song167_1
                0x00000000087bd857                song167_2
                0x00000000087bd868                song167
 build/sa1/sound/songs/song168.o(.rodata)
 .rodata        0x00000000087bd878       0x28 build/sa1/sound/songs/song168.o
                0x00000000087bd878                song168_1
                0x00000000087bd894                song168
 build/sa1/sound/songs/song169.o(.rodata)
 .rodata        0x00000000087bd8a0       0x28 build/sa1/sound/songs/song169.o
                0x00000000087bd8a0                song169_1
                0x00000000087bd8bc                song169
 build/sa1/sound/songs/song170.o(.rodata)
 .rodata        0x00000000087bd8c8       0x4c build/sa1/sound/songs/song170.o
                0x00000000087bd8c8                song170_1
                0x00000000087bd908                song170
 build/sa1/sound/songs/song171.o(.rodata)
 .rodata        0x00000000087bd914       0x74 build/sa1/sound/songs/song171.o
                0x00000000087bd914                song171_1
                0x00000000087bd97c                song171
 build/sa1/sound/songs/song172.o(.rodata)
 .rodata        0x00000000087bd988       0xe0 build/sa1/sound/songs/song172.o
                0x00000000087bd988                song172_1
                0x00000000087bda5c                song172
 build/sa1/sound/songs/song173.o(.rodata)
 .rodata        0x00000000087bda68       0x6c build/sa1/sound/songs/song173.o
                0x00000000087bda68                song173_1
                0x00000000087bdac8                song173
 build/sa1/sound/songs/song174.o(.rodata)
 .rodata        0x00000000087bdad4       0x84 build/sa1/sound/songs/song174.o
                0x00000000087bdad4                song174_1
                0x00000000087bdb4c                song174
 build/sa1/sound/songs/song175.o(.rodata)
 .rodata        0x00000000087bdb58       0xb8 build/sa1/sound/songs/song175.o
                0x00000000087bdb58                song175_1
                0x00000000087bdc04                song175
 build/sa1/sound/songs/song176.o(.rodata)
 .rodata        0x00000000087bdc10       0xb8 build/sa1/sound/songs/song176.o
                0x00000000087bdc10                song176_1
                0x00000000087bdcbc                song176
 build/sa1/sound/songs/song177.o(.rodata)
 .rodata        0x00000000087bdcc8       0xb4 build/sa1/sound/songs/song177.o
                0x00000000087bdcc8                song177_1
                0x00000000087bdd70                song177
 build/sa1/sound/songs/song178.o(.rodata)
 .rodata        0x00000000087bdd7c       0x20 build/sa1/sound/songs/song178.o
                0x00000000087bdd7c                song178_1
                0x00000000087bdd90                song178
 build/sa1/sound/songs/song179.o(.rodata)
 .rodata        0x00000000087bdd9c       0xe0 build/sa1/sound/songs/song179.o
                0x00000000087bdd9c                song179_1
                0x00000000087bde70                song179
 build/sa1/sound/songs/song180.o(.rodata)
 .rodata        0x00000000087bde7c       0x30 build/sa1/sound/songs/song180.o
                0x00000000087bde7c                song180_1
                0x00000000087bdea0                song180
 build/sa1/sound/songs/song181.o(.rodata)
 .rodata        0x00000000087bdeac       0x60 build/sa1/sound/songs/song181.o
                0x00000000087bdeac                song181_1
                0x00000000087bdf00                song181
 build/sa1/sound/songs/song182.o(.rodata)
 .rodata        0x00000000087bdf0c      0x168 build/sa1/sound/songs/song182.o
                0x00000000087bdf0c                song182_1
                0x00000000087bdf94                song182_2
                0x00000000087be064                song182
 build/sa1/sound/songs/song183.o(.rodata)
 .rodata        0x00000000087be074       0x2c build/sa1/sound/songs/song183.o
                0x00000000087be074                song183_1
                0x00000000087be094                song183
 build/sa1/sound/songs/song184.o(.rodata)
 .rodata        0x00000000087be0a0       0x88 build/sa1/sound/songs/song184.o
                0x00000000087be0a0                song184_1
                0x00000000087be11c                song184
 build/sa1/sound/songs/song185.o(.rodata)
 .rodata        0x00000000087be128       0x94 build/sa1/sound/songs/song185.o
                0x00000000087be128                song185_1
                0x00000000087be1b0                song185
 build/sa1/sound/songs/song188.o(.rodata)
 .rodata        0x00000000087be1bc       0x30 build/sa1/sound/songs/song188.o
                0x00000000087be1bc                song188_1
                0x00000000087be1e0                song188
 build/sa1/sound/songs/song189.o(.rodata)
 .rodata        0x00000000087be1ec       0xe4 build/sa1/sound/songs/song189.o
                0x00000000087be1ec                song189_1
                0x00000000087be2c4                song189
 build/sa1/sound/songs/song190.o(.rodata)
 .rodata        0x00000000087be2d0       0xa4 build/sa1/sound/songs/song190.o
                0x00000000087be2d0                song190_1
                0x00000000087be368                song190
 build/sa1/sound/songs/song191.o(.rodata)
 .rodata        0x00000000087be374       0x54 build/sa1/sound/songs/song191.o
                0x00000000087be374                song191_1
                0x00000000087be3bc                song191
 build/sa1/sound/songs/song192.o(.rodata)
 .rodata        0x00000000087be3c8       0x44 build/sa1/sound/songs/song192.o
                0x00000000087be3c8                song192_1
                0x00000000087be400                song192
 build/sa1/sound/songs/song193.o(.rodata)
 .rodata        0x00000000087be40c       0xb4 build/sa1/sound/songs/song193.o
                0x00000000087be40c                song193_1
                0x00000000087be4b4                song193
 build/sa1/sound/songs/song194.o(.rodata)
 .rodata        0x00000000087be4c0       0x6c build/sa1/sound/songs/song194.o
                0x00000000087be4c0                song194_1
                0x00000000087be520                song194
 build/sa1/sound/songs/song195.o(.rodata)
 .rodata        0x00000000087be52c       0x54 build/sa1/sound/songs/song195.o
                0x00000000087be52c                song195_1
                0x00000000087be574                song195
 build/sa1/sound/songs/song196.o(.rodata)
 .rodata        0x00000000087be580       0x88 build/sa1/sound/songs/song196.o
                0x00000000087be580                song196_1
                0x00000000087be5fc                song196
 build/sa1/sound/songs/song198.o(.rodata)
 .rodata        0x00000000087be608       0x2c build/sa1/sound/songs/song198.o
                0x00000000087be608                song198_1
                0x00000000087be628                song198
 build/sa1/sound/songs/song199.o(.rodata)
 .rodata        0x00000000087be634       0x90 build/sa1/sound/songs/song199.o
                0x00000000087be634                song199_1
                0x00000000087be6b8                song199
 build/sa1/sound/songs/song200.o(.rodata)
 .rodata        0x00000000087be6c4       0xb8 build/sa1/sound/songs/song200.o
                0x00000000087be6c4                song200_1
                0x00000000087be770                song200
 build/sa1/sound/songs/song201.o(.rodata)
 .rodata        0x00000000087be77c       0x30 build/sa1/sound/songs/song201.o
                0x00000000087be77c                song201_1
                0x00000000087be7a0                song201
 build/sa1/sound/songs/song202.o(.rodata)
 .rodata        0x00000000087be7ac       0x20 build/sa1/sound/songs/song202.o
                0x00000000087be7ac                song202_1
                0x00000000087be7c0                song202
 build/sa1/sound/songs/song203.o(.rodata)
 .rodata        0x00000000087be7cc       0xbc build/sa1/sound/songs/song203.o
                0x00000000087be7cc                song203_1
                0x00000000087be87c                song203
 build/sa1/sound/songs/song204.o(.rodata)
 .rodata        0x00000000087be888       0x4c build/sa1/sound/songs/song204.o
                0x00000000087be888                song204_1
                0x00000000087be8c8                song204
 build/sa1/sound/songs/song205.o(.rodata)
 .rodata        0x00000000087be8d4       0x38 build/sa1/sound/songs/song205.o
                0x00000000087be8d4                song205_1
                0x00000000087be900                song205
 build/sa1/sound/songs/song206.o(.rodata)
 .rodata        0x00000000087be90c       0x6c build/sa1/sound/songs/song206.o
                0x00000000087be90c                song206_1
                0x00000000087be96c                song206
 build/sa1/sound/songs/song207.o(.rodata)
 .rodata        0x00000000087be978       0x6c build/sa1/sound/songs/song207.o
                0x00000000087be978                song207_1
                0x00000000087be9d8                song207
 build/sa1/sound/songs/song208.o(.rodata)
 .rodata        0x00000000087be9e4       0x6c build/sa1/sound/songs/song208.o
                0x00000000087be9e4                song208_1
                0x00000000087bea44                song208
 build/sa1/sound/songs/song209.o(.rodata)
 .rodata        0x00000000087bea50       0x74 build/sa1/sound/songs/song209.o
                0x00000000087bea50                song209_1
                0x00000000087beab8                song209
 build/sa1/sound/songs/song210.o(.rodata)
 .rodata        0x00000000087beac4       0x74 build/sa1/sound/songs/song210.o
                0x00000000087beac4                song210_1
                0x00000000087beb2c                song210
 build/sa1/sound/songs/song211.o(.rodata)
 .rodata        0x00000000087beb38       0x74 build/sa1/sound/songs/song211.o
                0x00000000087beb38                song211_1
                0x00000000087beba0                song211
 build/sa1/sound/songs/song212.o(.rodata)
 .rodata        0x00000000087bebac       0x48 build/sa1/sound/songs/song212.o
                0x00000000087bebac                song212_1
                0x00000000087bebe8                song212
 build/sa1/sound/songs/song213.o(.rodata)
 .rodata        0x00000000087bebf4       0x48 build/sa1/sound/songs/song213.o
                0x00000000087bebf4                song213_1
                0x00000000087bec30                song213
 build/sa1/sound/songs/song214.o(.rodata)
 .rodata        0x00000000087bec3c       0x38 build/sa1/sound/songs/song214.o
                0x00000000087bec3c                song214_1
                0x00000000087bec68                song214
 build/sa1/sound/songs/song215.o(.rodata)
 .rodata        0x00000000087bec74       0x20 build/sa1/sound/songs/song215.o
                0x00000000087bec74                song215_1
                0x00000000087bec88                song215
 build/sa1/sound/songs/song216.o(.rodata)
 .rodata        0x00000000087bec94       0x20 build/sa1/sound/songs/song216.o
                0x00000000087bec94                song216_1
                0x00000000087beca8                song216
 build/sa1/sound/songs/song217.o(.rodata)
 .rodata        0x00000000087becb4       0x20 build/sa1/sound/songs/song217.o
                0x00000000087becb4                song217_1
                0x00000000087becc8                song217
 build/sa1/sound/songs/song218.o(.rodata)
 .rodata        0x00000000087becd4       0x20 build/sa1/sound/songs/song218.o
                0x00000000087becd4                song218_1
                0x00000000087bece8                song218
 build/sa1/sound/songs/song219.o(.rodata)
 .rodata        0x00000000087becf4       0x20 build/sa1/sound/songs/song219.o
                0x00000000087becf4                song219_1
                0x00000000087bed08                song219
 build/sa1/sound/songs/song220.o(.rodata)
 .rodata        0x00000000087bed14       0x20 build/sa1/sound/songs/song220.o
                0x00000000087bed14                song220_1
                0x00000000087bed28                song220
 build/sa1/sound/songs/song221.o(.rodata)
 .rodata        0x00000000087bed34       0x20 build/sa1/sound/songs/song221.o
                0x00000000087bed34                song221_1
                0x00000000087bed48                song221
 build/sa1/sound/songs/song222.o(.rodata)
 .rodata        0x00000000087bed54       0x20 build/sa1/sound/songs/song222.o
                0x00000000087bed54                song222_1
                0x00000000087bed68                song222
 build/sa1/sound/songs/song223.o(.rodata)
 .rodata        0x00000000087bed74       0x20 build/sa1/sound/songs/song223.o
                0x00000000087bed74                song223_1
                0x00000000087bed88                song223
 build/sa1/sound/songs/song224.o(.rodata)
 .rodata        0x00000000087bed94       0x20 build/sa1/sound/songs/song224.o
                0x00000000087bed94                song224_1
                0x00000000087beda8                song224
 build/sa1/sound/songs/song301.o(.rodata)
 .rodata        0x00000000087bedb4       0xd0 build/sa1/sound/songs/song301.o
                0x00000000087bedb4                song301_1
                0x00000000087bede4                song301_2
                0x00000000087bee10                song301_3
                0x00000000087bee3e                song301_4
                0x00000000087bee6c                song301
 build/sa1/sound/songs/song302.o(.rodata)
 .rodata        0x00000000087bee84       0x80 build/sa1/sound/songs/song302.o
                0x00000000087bee84                song302_1
                0x00000000087bee9f                song302_2
                0x00000000087beeb8                song302_3
                0x00000000087beed1                song302_4
                0x00000000087beeec                song302
 build/sa1/sound/songs/song303.o(.rodata)
 .rodata        0x00000000087bef04       0x90 build/sa1/sound/songs/song303.o
                0x00000000087bef04                song303_1
                0x00000000087bef1c                song303_2
                0x00000000087bef32                song303_3
                0x00000000087bef47                song303_4
                0x00000000087bef5d                song303_5
                0x00000000087bef78                song303
 build/sa1/sound/songs/song304.o(.rodata)
 .rodata        0x00000000087bef94      0x158 build/sa1/sound/songs/song304.o
                0x00000000087bef94                song304_1
                0x00000000087befc7                song304_2
                0x00000000087befe7                song304_3
                0x00000000087bf006                song304_4
                0x00000000087bf028                song304_5
                0x00000000087bf048                song304_6
                0x00000000087bf067                song304_7
                0x00000000087bf0c8                song304
 build/sa1/sound/songs/song305.o(.rodata)
 .rodata        0x00000000087bf0ec      0x1f0 build/sa1/sound/songs/song305.o
                0x00000000087bf0ec                song305_1
                0x00000000087bf122                song305_2
                0x00000000087bf14d                song305_3
                0x00000000087bf179                song305_4
                0x00000000087bf18b                song305_5
                0x00000000087bf1be                song305_6
                0x00000000087bf1ee                song305_7
                0x00000000087bf251                song305_8
                0x00000000087bf283                song305_9
                0x00000000087bf2b0                song305
 build/sa1/sound/songs/song306.o(.rodata)
 .rodata        0x00000000087bf2dc      0x158 build/sa1/sound/songs/song306.o
                0x00000000087bf2dc                song306_1
                0x00000000087bf318                song306_2
                0x00000000087bf339                song306_3
                0x00000000087bf359                song306_4
                0x00000000087bf379                song306_5
                0x00000000087bf3cd                song306_6
                0x00000000087bf3ed                song306_7
                0x00000000087bf410                song306
 build/sa1/sound/songs/song307.o(.rodata)
 .rodata        0x00000000087bf434      0x120 build/sa1/sound/songs/song307.o
                0x00000000087bf434                song307_1
                0x00000000087bf4bd                song307_2
                0x00000000087bf4f7                song307_3
                0x00000000087bf511                song307_4
                0x00000000087bf53c                song307
 build/sa1/src/lib/agb_flash/agb_flash.o(.rodata)
 .rodata        0x00000000087bf554       0xb8 build/sa1/src/lib/agb_flash/agb_flash.o
                0x00000000087bf560                gSetup512KInfos
 build/sa1/src/lib/agb_flash/agb_flash_le_512k.o(.rodata)
 .rodata        0x00000000087bf60c       0x98 build/sa1/src/lib/agb_flash/agb_flash_le_512k.o
                0x00000000087bf60c                le512kMaxTime
                0x00000000087bf624                DefaultFlash512K
                0x00000000087bf650                LE39FW512
 build/sa1/src/lib/agb_flash/agb_flash_mx_512k.o(.rodata)
 .rodata        0x00000000087bf6a4       0x90 build/sa1/src/lib/agb_flash/agb_flash_mx_512k.o
                0x00000000087bf6a4                mx512kMaxTime
                0x00000000087bf6bc                paMaxTime
                0x00000000087bf6d4                MX29L512
                0x00000000087bf700                MN63F805MNP
 build/sa1/src/lib/agb_flash/agb_flash_at_512k.o(.rodata)
 .rodata        0x00000000087bf734       0x98 build/sa1/src/lib/agb_flash/agb_flash_at_512k.o
                0x00000000087bf734                AT29LV512MaxTime
                0x00000000087bf74c                AT29LV512
                0x00000000087bf778                gUnknown_087BF778
 build/sa1/data/data1.o(.rodata)
 .rodata        0x00000000087bf7cc    0x3f860 build/sa1/data/data1.o
                0x00000000087bf8cc                gUnknown_087BF8CC
                0x00000000087bf8dc                gUnknown_087BF8DC
                0x00000000087bf918                demo1
                0x00000000087bfb10                demo2
                0x00000000087bfd10                demo4
                0x00000000087bff18                demo3
                0x00000000087c0118                gUnknown_087C0118
                0x00000000087c0258                gMultiboot_087C0258
                0x00000000087c22f8                gMultiboot_087C22F8
                0x00000000087ca2f8                gUnknown_087CA2F8
                0x00000000087d22f8                gUnknown_087D22F8
                0x00000000087d7e80                gUnknown_087D7E80
                0x00000000087dfe80                gUnknown_087DFE80
                0x00000000087e3610                gUnknown_087E3610
                0x00000000087eb610                gUnknown_087EB610
                0x00000000087f2128                gUnknown_087F2128
                0x00000000087f88f0                gUnknown_087F88F0
 build/sa1/asm/rom_footer.o(.rodata)
 .rodata        0x00000000087ff02c       0x1f build/sa1/asm/rom_footer.o
                0x00000000087ff02c                rom_footer
                0x0000000002000000                . = 0x2000000

EWRAM           0x0000000002000000    0x3f000
                0x0000000000001400                . = 0x1400
 *fill*         0x0000000002000000     0x1400 
                0x0000000002001400                gSoundInfo = .
 build/sa1/src/lib/m4a/m4a.o(ewram_data)
 ewram_data     0x0000000002001400     0x1250 build/sa1/src/lib/m4a/m4a.o
                0x00000000020023b0                gMPlayJumpTable
                0x0000000002002440                gCgbChans
                0x0000000002002540                gMPlayInfo_BGM
                0x0000000002002580                gMPlayInfo_SE1
                0x00000000020025c0                gMPlayInfo_SE2
                0x0000000002002600                gMPlayMemAccArea
                0x0000000002002610                gMPlayInfo_SE3
                0x0000000000002650                . = 0x2650
                0x0000000002002650                gEwramHeap = .
                0x00000000000226d0                . = 0x226d0
 *fill*         0x0000000002002650    0x20080 
                0x00000000020226d0                ewram_end = .
                0x0000000000033000                . = 0x33000
 *fill*         0x00000000020226d0    0x10930 
                0x0000000002033000                gUnknown_02033000 = .
                0x0000000000033004                . = 0x33004
 *fill*         0x0000000002033000        0x4 
                0x0000000002033004                gUnknown_02033004 = .
                0x0000000000033008                . = 0x33008
 *fill*         0x0000000002033004        0x4 
                0x0000000002033008                gUnknown_02033008 = .
                0x000000000003300c                . = 0x3300c
 *fill*         0x0000000002033008        0x4 
                0x000000000203300c                gUnknown_0203300C = .
                0x000000000003b000                . = 0x3b000
 *fill*         0x000000000203300c     0x7ff4 
                0x000000000203b000                gUnknown_0203B000 = .
                0x000000000003f000                . = 0x3f000
 *fill*         0x000000000203b000     0x4000 
                0x000000000203f000                gUnknown_0203F000 = .
                0x0000000003000000                . = 0x3000000

IWRAM           0x0000000003000000     0x7ffa
 build/sa1/src/lib/m4a/m4a.o(.bss.code)
 .bss.code      0x0000000003000000      0x400 build/sa1/src/lib/m4a/m4a.o
                0x0000000003000000                SoundMainRAM_Buffer
                0x0000000003000424                gFlashMaxTime = 0x424
                0x0000000003000428                PollFlashStatus = 0x428
                0x000000000300042c                sTimerNum = 0x42c
                0x000000000300042e                sTimerCount = 0x42e
                0x0000000003000430                gFlashTimeoutFlag = 0x430
                0x0000000003000434                gTimerReg = 0x434
                0x0000000003000438                gSavedIme = 0x438
                0x000000000000042c                . = 0x42c
 *fill*         0x0000000003000400       0x2c 
 build/sa1/src/lib/agb_flash/agb_flash.o(.bss)
 .bss           0x000000000300042c        0x0 build/sa1/src/lib/agb_flash/agb_flash.o
                0x0000000000000440                . = 0x440
 *fill*         0x000000000300042c       0x14 
 *libgcc.a:(.bss)
 .bss           0x0000000003000440        0x0 tools/agbcc/lib/libgcc.a(_call_via_rX.o)
 .bss           0x0000000003000440        0x0 tools/agbcc/lib/libgcc.a(_divsi3.o)
 .bss           0x0000000003000440        0x0 tools/agbcc/lib/libgcc.a(_dvmd_tls.o)
 .bss           0x0000000003000440        0x0 tools/agbcc/lib/libgcc.a(_modsi3.o)
 .bss           0x0000000003000440        0x0 tools/agbcc/lib/libgcc.a(_udivsi3.o)
 .bss           0x0000000003000440        0x0 tools/agbcc/lib/libgcc.a(_umodsi3.o)
 .bss           0x0000000003000440       0x14 tools/agbcc/lib/libgcc.a(dp-bit.o)
 *fill*         0x0000000003000454        0x4 
 .bss           0x0000000003000458       0x10 tools/agbcc/lib/libgcc.a(fp-bit.o)
 .bss           0x0000000003000468        0x0 tools/agbcc/lib/libgcc.a(_lshrdi3.o)
 .bss           0x0000000003000468        0x0 tools/agbcc/lib/libgcc.a(_muldi3.o)
 .bss           0x0000000003000468        0x0 tools/agbcc/lib/libgcc.a(_negdi2.o)
                0x0000000000000470                . = 0x470
 *fill*         0x0000000003000468        0x8 
                0x0000000003000470                gIntrTable = .
                0x00000000000004b0                . = 0x4b0
 *fill*         0x0000000003000470       0x40 
                0x00000000030004b0                gIntrMainBuf = .
                0x00000000000006b0                . = 0x6b0
 *fill*         0x00000000030004b0      0x200 
                0x00000000030006b0                gTasks = .
                0x00000000000010b0                . = 0x10b0
 *fill*         0x00000000030006b0      0xa00 
                0x00000000030010b0                gUnknown_030010B0 = .
                0x00000000000010b4                . = 0x10b4
 *fill*         0x00000000030010b0        0x4 
                0x00000000030010b4                gUnknown_030010B4 = .
                0x00000000000010c0                . = 0x10c0
 *fill*         0x00000000030010b4        0xc 
                0x00000000030010c0                gUnknown_030010C0 = .
                0x0000000000001100                . = 0x1100
 *fill*         0x00000000030010c0       0x40 
                0x0000000003001100                gFlags = .
                0x0000000000001110                . = 0x1110
 *fill*         0x0000000003001100       0x10 
                0x0000000003001110                gUnknown_03001110 = .
                0x0000000000001130                . = 0x1130
 *fill*         0x0000000003001110       0x20 
                0x0000000003001130                gUnknown_03001130 = .
                0x0000000000001140                . = 0x1140
 *fill*         0x0000000003001130       0x10 
                0x0000000003001140                gPhysicalInput = .
                0x0000000000001144                . = 0x1144
 *fill*         0x0000000003001140        0x4 
                0x0000000003001144                gBgOffsetsHBlank = .
                0x0000000000001148                . = 0x1148
 *fill*         0x0000000003001144        0x4 
                0x0000000003001148                gVramHeapMaxTileSlots = .
                0x000000000000114c                . = 0x114c
 *fill*         0x0000000003001148        0x4 
                0x000000000300114c                gNumHBlankCallbacks = .
                0x0000000000001150                . = 0x1150
 *fill*         0x000000000300114c        0x4 
                0x0000000003001150                gMultiSioRecv = .
                0x00000000000011a0                . = 0x11a0
 *fill*         0x0000000003001150       0x50 
                0x00000000030011a0                gNumHBlankIntrs = .
                0x00000000000011a8                . = 0x11a8
 *fill*         0x00000000030011a0        0x8 
                0x00000000030011a8                gBldRegs = .
                0x00000000000011b0                . = 0x11b0
 *fill*         0x00000000030011a8        0x8 
                0x00000000030011b0                gOamFreeIndex = .
                0x00000000000011c0                . = 0x11c0
 *fill*         0x00000000030011b0       0x10 
                0x00000000030011c0                gEmptyTask = .
                0x00000000000011e0                . = 0x11e0
 *fill*         0x00000000030011c0       0x20 
                0x00000000030011e0                gBgAffineRegs = .
                0x0000000000001200                . = 0x1200
 *fill*         0x00000000030011e0       0x20 
                0x0000000003001200                gVramHeapStartAddr = .
                0x0000000000001204                . = 0x1204
 *fill*         0x0000000003001200        0x4 
                0x0000000003001204                gUnknown_03001204 = .
                0x0000000000001208                . = 0x1208
 *fill*         0x0000000003001204        0x4 
                0x0000000003001208                gUnknown_03001208 = .
                0x000000000000120c                . = 0x120c
 *fill*         0x0000000003001208        0x4 
                0x000000000300120c                gUnknown_0300120C = .
                0x0000000000001210                . = 0x1210
 *fill*         0x000000000300120c        0x4 
                0x0000000003001210                gMultiSioStatusFlags = .
                0x0000000000001214                . = 0x1214
 *fill*         0x0000000003001210        0x4 
                0x0000000003001214                gMultiSioEnabled = .
                0x0000000000001220                . = 0x1220
 *fill*         0x0000000003001214        0xc 
                0x0000000003001220                gTaskPtrs = .
                0x0000000000001420                . = 0x1420
 *fill*         0x0000000003001220      0x200 
                0x0000000003001420                gBgOffsetsBuffer = .
                0x0000000000001920                . = 0x1920
 *fill*         0x0000000003001420      0x500 
                0x0000000003001920                gObjPalette = .
                0x0000000000001b20                . = 0x1b20
 *fill*         0x0000000003001920      0x200 
                0x0000000003001b20                gTilemapsRef = .
                0x0000000000001b24                . = 0x1b24
 *fill*         0x0000000003001b20        0x4 
                0x0000000003001b24                gFrameCount = .
                0x0000000000001b30                . = 0x1b30
 *fill*         0x0000000003001b24        0xc 
                0x0000000003001b30                gWinRegs = .
                0x0000000000001b3c                . = 0x1b3c
 *fill*         0x0000000003001b30        0xc 
                0x0000000003001b3c                gNumTasks = .
                0x0000000000001b40                . = 0x1b40
 *fill*         0x0000000003001b3c        0x4 
                0x0000000003001b40                gUnknown_03001B40 = .
                0x0000000000001b50                . = 0x1b50
 *fill*         0x0000000003001b40       0x10 
                0x0000000003001b50                gInput = .
                0x0000000000001b60                . = 0x1b60
 *fill*         0x0000000003001b50       0x10 
                0x0000000003001b60                gRepeatedKeysTestCounter = .
                0x0000000000001b6c                . = 0x1b6c
 *fill*         0x0000000003001b60        0xc 
                0x0000000003001b6c                gUnknown_03001B6C = .
                0x0000000000001b70                . = 0x1b70
 *fill*         0x0000000003001b6c        0x4 
                0x0000000003001b70                gBgCntRegs = .
                0x0000000000001b78                . = 0x1b78
 *fill*         0x0000000003001b70        0x8 
                0x0000000003001b78                gRepeatedKeys = .
                0x0000000000001b7c                . = 0x1b7c
 *fill*         0x0000000003001b78        0x4 
                0x0000000003001b7c                gNextTask = .
                0x0000000000001b80                . = 0x1b80
 *fill*         0x0000000003001b7c        0x4 
                0x0000000003001b80                gOamBuffer2 = .
                0x0000000000001f80                . = 0x1f80
 *fill*         0x0000000003001b80      0x400 
                0x0000000003001f80                gHBlankCallbacks = .
                0x0000000000001f90                . = 0x1f90
 *fill*         0x0000000003001f80       0x10 
                0x0000000003001f90                gCurTask = .
                0x0000000000001f94                . = 0x1f94
 *fill*         0x0000000003001f90        0x4 
                0x0000000003001f94                gUnknown_03001F94 = .
                0x0000000000001fa0                . = 0x1fa0
 *fill*         0x0000000003001f94        0xc 
                0x0000000003001fa0                gKeysFirstRepeatIntervals = .
                0x0000000000001fac                . = 0x1fac
 *fill*         0x0000000003001fa0        0xc 
                0x0000000003001fac                gReleasedKeys = .
                0x0000000000001fb0                . = 0x1fb0
 *fill*         0x0000000003001fac        0x4 
                0x0000000003001fb0                gUnknown_03001FB0 = .
                0x0000000000002030                . = 0x2030
 *fill*         0x0000000003001fb0       0x80 
                0x0000000003002030                gFlagsPreVBlank = .
                0x0000000000002034                . = 0x2034
 *fill*         0x0000000003002030        0x4 
                0x0000000003002034                gUnknown_03002034 = .
                0x0000000000002040                . = 0x2040
 *fill*         0x0000000003002034        0xc 
                0x0000000003002040                gVramGraphicsCopyQueue = .
                0x00000000000020c0                . = 0x20c0
 *fill*         0x0000000003002040       0x80 
                0x00000000030020c0                gUnknown_030020C0 = .
                0x00000000000020d0                . = 0x20d0
 *fill*         0x00000000030020c0       0x10 
                0x00000000030020d0                gBgScrollRegs = .
                0x00000000000020e0                . = 0x20e0
 *fill*         0x00000000030020d0       0x10 
                0x00000000030020e0                gDispCnt = .
                0x00000000000020f0                . = 0x20f0
 *fill*         0x00000000030020e0       0x10 
                0x00000000030020f0                gKeysContinuedRepeatIntervals = .
                0x0000000000002100                . = 0x2100
 *fill*         0x00000000030020f0       0x10 
                0x0000000003002100                gMultiSioSend = .
                0x0000000000002114                . = 0x2114
 *fill*         0x0000000003002100       0x14 
                0x0000000003002114                gUnknown_03002114 = .
                0x0000000000002118                . = 0x2118
 *fill*         0x0000000003002114        0x4 
                0x0000000003002118                gUnknown_03002118 = .
                0x000000000000211c                . = 0x211c
 *fill*         0x0000000003002118        0x4 
                0x000000000300211c                gUnknown_0300211C = .
                0x0000000000002120                . = 0x2120
 *fill*         0x000000000300211c        0x4 
                0x0000000003002120                gBgPalette = .
                0x0000000000002320                . = 0x2320
 *fill*         0x0000000003002120      0x200 
                0x0000000003002320                gUnknown_03002320 = .
                0x0000000000002324                . = 0x2324
 *fill*         0x0000000003002320        0x4 
                0x0000000003002324                gVramGraphicsCopyQueueIndex = .
                0x0000000000002328                . = 0x2328
 *fill*         0x0000000003002324        0x4 
                0x0000000003002328                gPrevInput = .
                0x000000000000232c                . = 0x232c
 *fill*         0x0000000003002328        0x4 
                0x000000000300232c                gUnknown_0300232C = .
                0x0000000000002330                . = 0x2330
 *fill*         0x000000000300232c        0x4 
                0x0000000003002330                gMultiBootParam = .
                0x000000000000237c                . = 0x237c
 *fill*         0x0000000003002330       0x4c 
                0x000000000300237c                gPressedKeys = .
                0x0000000000002380                . = 0x2380
 *fill*         0x000000000300237c        0x4 
                0x0000000003002380                gOamFirstPausedIndex = .
                0x0000000000002384                . = 0x2384
 *fill*         0x0000000003002380        0x4 
                0x0000000003002384                gUnknown_03002384 = .
                0x0000000000002390                . = 0x2390
 *fill*         0x0000000003002384        0xc 
                0x0000000003002390                gHBlankIntrs = .
                0x00000000000023a0                . = 0x23a0
 *fill*         0x0000000003002390       0x10 
                0x00000000030023a0                gIwramHeap = .
                0x00000000000045b0                . = 0x45b0
 *fill*         0x00000000030023a0     0x2210 
                0x00000000030045b0                gUnknown_030045B0 = .
                0x00000000000045f0                . = 0x45f0
 *fill*         0x00000000030045b0       0x40 
                0x00000000030045f0                gUnknown_030045F0 = .
                0x00000000000045f4                . = 0x45f4
 *fill*         0x00000000030045f0        0x4 
                0x00000000030045f4                gUnknown_030045F4 = .
                0x00000000000045f8                . = 0x45f8
 *fill*         0x00000000030045f4        0x4 
                0x00000000030045f8                gVramGraphicsCopyCursor = .
                0x0000000000004600                . = 0x4600
 *fill*         0x00000000030045f8        0x8 
                0x0000000003004600                gUnknown_03004600 = .
                0x0000000000004620                . = 0x4620
 *fill*         0x0000000003004600       0x20 
                0x0000000003004620                gUnknown_03004620 = .
                0x0000000000004630                . = 0x4630
 *fill*         0x0000000003004620       0x10 
                0x0000000003004630                gOamBuffer = .
                0x0000000000004a30                . = 0x4a30
 *fill*         0x0000000003004630      0x400 
                0x0000000003004a30                gVramHeapState = .
                0x0000000000004c30                . = 0x4c30
 *fill*         0x0000000003004a30      0x200 
                0x0000000003004c30                gUnknown_03004C30 = .
                0x0000000000004c34                . = 0x4c34
 *fill*         0x0000000003004c30        0x4 
                0x0000000003004c34                gUnknown_03004C34 = .
                0x0000000000004c38                . = 0x4c38
 *fill*         0x0000000003004c34        0x4 
                0x0000000003004c38                gUnknown_03004C38 = .
                0x0000000000004c40                . = 0x4c40
 *fill*         0x0000000003004c38        0x8 
                0x0000000003004c40                gUnknown_03004C40 = .
                0x0000000000004c50                . = 0x4c50
 *fill*         0x0000000003004c40       0x10 
                0x0000000003004c50                gInputPlaybackData = .
                0x0000000000004c54                . = 0x4c54
 *fill*         0x0000000003004c50        0x4 
                0x0000000003004c54                gExecSoundMain = .
                0x0000000000004c58                . = 0x4c58
 *fill*         0x0000000003004c54        0x4 
                0x0000000003004c58                gPseudoRandom = .
                0x0000000000004c60                . = 0x4c60
 *fill*         0x0000000003004c58        0x8 
                0x0000000003004c60                gMultiSioIntrFuncBuf = .
                0x0000000000004d80                . = 0x4d80
 *fill*         0x0000000003004c60      0x120 
                0x0000000003004d80                gMultiSioArea = .
                0x0000000000004f70                . = 0x4f70
 *fill*         0x0000000003004d80      0x1f0 
                0x0000000003004f70                gMultiSioRecvFuncBuf = .
                0x0000000000004fb0                . = 0x4fb0
 *fill*         0x0000000003004f70       0x40 
                0x0000000003004fb0                gSio32MultiLoadArea = .
                0x0000000000004fe0                . = 0x4fe0
 *fill*         0x0000000003004fb0       0x30 
                0x0000000003004fe0                gUnknown_03004FE0 = .
                0x0000000000004fe4                . = 0x4fe4
 *fill*         0x0000000003004fe0        0x4 
                0x0000000003004fe4                gCheckpointTime = .
                0x0000000000004fe8                . = 0x4fe8
 *fill*         0x0000000003004fe4        0x4 
                0x0000000003004fe8                gMultiplayerCharRings = .
                0x0000000000004fec                . = 0x4fec
 *fill*         0x0000000003004fe8        0x4 
                0x0000000003004fec                gRingCount = .
                0x0000000000004ff0                . = 0x4ff0
 *fill*         0x0000000003004fec        0x4 
                0x0000000003004ff0                gUnknown_03004FF0 = .
                0x0000000000004ffc                . = 0x4ffc
 *fill*         0x0000000003004ff0        0xc 
                0x0000000003004ffc                gActiveCollectRingEffectCount = .
                0x0000000000005000                . = 0x5000
 *fill*         0x0000000003004ffc        0x4 
                0x0000000003005000                gUnknown_03005000 = .
                0x0000000000005004                . = 0x5004
 *fill*         0x0000000003005000        0x4 
                0x0000000003005004                gUnknown_03005004 = .
                0x0000000000005008                . = 0x5008
 *fill*         0x0000000003005004        0x4 
                0x0000000003005008                gUnknown_03005008 = .
                0x000000000000500c                . = 0x500c
 *fill*         0x0000000003005008        0x4 
                0x000000000300500c                gUnknown_0300500C = .
                0x0000000000005010                . = 0x5010
 *fill*         0x000000000300500c        0x4 
                0x0000000003005010                gUnknown_03005010 = .
                0x0000000000005014                . = 0x5014
 *fill*         0x0000000003005010        0x4 
                0x0000000003005014                gUnknown_03005014 = .
                0x0000000000005018                . = 0x5018
 *fill*         0x0000000003005014        0x4 
                0x0000000003005018                gUnknown_03005018 = .
                0x000000000000501c                . = 0x501c
 *fill*         0x0000000003005018        0x4 
                0x000000000300501c                gUnknown_0300501C = .
                0x0000000000005020                . = 0x5020
 *fill*         0x000000000300501c        0x4 
                0x0000000003005020                gUnknown_03005020 = .
                0x0000000000005024                . = 0x5024
 *fill*         0x0000000003005020        0x4 
                0x0000000003005024                gNumLives = .
                0x0000000000005028                . = 0x5028
 *fill*         0x0000000003005024        0x4 
                0x0000000003005028                gUnknown_03005028 = .
                0x000000000000502c                . = 0x502c
 *fill*         0x0000000003005028        0x4 
                0x000000000300502c                gUnknown_0300502C = .
                0x0000000000005030                . = 0x5030
 *fill*         0x000000000300502c        0x4 
                0x0000000003005030                gLevelScore = .
                0x0000000000005034                . = 0x5034
 *fill*         0x0000000003005030        0x4 
                0x0000000003005034                gCourseTime = .
                0x0000000000005038                . = 0x5038
 *fill*         0x0000000003005034        0x4 
                0x0000000003005038                gUnknown_03005038 = .
                0x0000000000005040                . = 0x5040
 *fill*         0x0000000003005038        0x8 
                0x0000000003005040                gUnknown_03005040 = .
                0x0000000000005048                . = 0x5048
 *fill*         0x0000000003005040        0x8 
                0x0000000003005048                gUnknown_03005048 = .
                0x000000000000504c                . = 0x504c
 *fill*         0x0000000003005048        0x4 
                0x000000000300504c                gUnknown_0300504C = .
                0x0000000000005050                . = 0x5050
 *fill*         0x000000000300504c        0x4 
                0x0000000003005050                gUnknown_03005050 = .
                0x0000000000005054                . = 0x5054
 *fill*         0x0000000003005050        0x4 
                0x0000000003005054                gUnknown_03005054 = .
                0x0000000000005058                . = 0x5058
 *fill*         0x0000000003005054        0x4 
                0x0000000003005058                gUnknown_03005058 = .
                0x000000000000505c                . = 0x505c
 *fill*         0x0000000003005058        0x4 
                0x000000000300505c                gGameMode = .
                0x0000000000005060                . = 0x5060
 *fill*         0x000000000300505c        0x4 
                0x0000000003005060                gUnknown_03005060 = .
                0x0000000000005064                . = 0x5064
 *fill*         0x0000000003005060        0x4 
                0x0000000003005064                gUnknown_03005064 = .
                0x0000000000005068                . = 0x5068
 *fill*         0x0000000003005064        0x4 
                0x0000000003005068                gEntitiesManagerTask = .
                0x000000000000506c                . = 0x506c
 *fill*         0x0000000003005068        0x4 
                0x000000000300506c                gUnknown_0300506C = .
                0x0000000000005070                . = 0x5070
 *fill*         0x000000000300506c        0x4 
                0x0000000003005070                gUnknown_03005070 = .
                0x0000000000005074                . = 0x5074
 *fill*         0x0000000003005070        0x4 
                0x0000000003005074                gUnknown_03005074 = .
                0x0000000000005078                . = 0x5078
 *fill*         0x0000000003005074        0x4 
                0x0000000003005078                gUnknown_03005078 = .
                0x000000000000507c                . = 0x507c
 *fill*         0x0000000003005078        0x4 
                0x000000000300507c                gUnknown_0300507C = .
                0x0000000000005080                . = 0x5080
 *fill*         0x000000000300507c        0x4 
                0x0000000003005080                gUnknown_03005080 = .
                0x0000000000005084                . = 0x5084
 *fill*         0x0000000003005080        0x4 
                0x0000000003005084                gSelectedCharacter = .
                0x0000000000005088                . = 0x5088
 *fill*         0x0000000003005084        0x4 
                0x0000000003005088                gUnknown_03005088 = .
                0x000000000000508c                . = 0x508c
 *fill*         0x0000000003005088        0x4 
                0x000000000300508c                gUnknown_0300508C = .
                0x0000000000005090                . = 0x5090
 *fill*         0x000000000300508c        0x4 
                0x0000000003005090                gMultiplayerCharacters = .
                0x00000000000050a0                . = 0x50a0
 *fill*         0x0000000003005090       0x10 
                0x00000000030050a0                gUnknown_030050A0 = .
                0x0000000000005120                . = 0x5120
 *fill*         0x00000000030050a0       0x80 
                0x0000000003005120                gStageTime = .
                0x0000000000005124                . = 0x5124
 *fill*         0x0000000003005120        0x4 
                0x0000000003005124                gUnknown_03005124 = .
                0x0000000000005130                . = 0x5130
 *fill*         0x0000000003005124        0xc 
                0x0000000003005130                gMultiplayerPlayerTasks = .
                0x0000000000005140                . = 0x5140
 *fill*         0x0000000003005130       0x10 
                0x0000000003005140                gUnknown_03005140 = .
                0x0000000000005148                . = 0x5148
 *fill*         0x0000000003005140        0x8 
                0x0000000003005148                gUnknown_03005148 = .
                0x000000000000514c                . = 0x514c
 *fill*         0x0000000003005148        0x4 
                0x000000000300514c                gCurrentLevel = .
                0x0000000000005150                . = 0x5150
 *fill*         0x000000000300514c        0x4 
                0x0000000003005150                gMultiplayerConnections = .
                0x0000000000005154                . = 0x5154
 *fill*         0x0000000003005150        0x4 
                0x0000000003005154                gUnknown_03005154 = .
                0x0000000000005160                . = 0x5160
 *fill*         0x0000000003005154        0xc 
                0x0000000003005160                gUnknown_03005160 = .
                0x0000000000005170                . = 0x5170
 *fill*         0x0000000003005160       0x10 
                0x0000000003005170                gUnknown_03005170 = .
                0x0000000000005180                . = 0x5180
 *fill*         0x0000000003005170       0x10 
                0x0000000003005180                gUnknown_03005180 = .
                0x00000000000054e0                . = 0x54e0
 *fill*         0x0000000003005180      0x360 
                0x00000000030054e0                gUnknown_030054E0 = .
                0x00000000000055a0                . = 0x55a0
 *fill*         0x00000000030054e0       0xc0 
                0x00000000030055a0                gUnknown_030055A0 = .
                0x00000000000055e0                . = 0x55e0
 *fill*         0x00000000030055a0       0x40 
                0x00000000030055e0                gUnknown_030055E0 = .
                0x00000000000055fc                . = 0x55fc
 *fill*         0x00000000030055e0       0x1c 
                0x00000000030055fc                gUnknown_030055FC = .
                0x0000000000005630                . = 0x5630
 *fill*         0x00000000030055fc       0x34 
                0x0000000003005630                gUnknown_03005630 = .
                0x0000000000005670                . = 0x5670
 *fill*         0x0000000003005630       0x40 
                0x0000000003005670                gUnknown_03005670 = .
                0x0000000000005690                . = 0x5690
 *fill*         0x0000000003005670       0x20 
                0x0000000003005690                gUnknown_03005690 = .
                0x00000000000056f0                . = 0x56f0
 *fill*         0x0000000003005690       0x60 
                0x00000000030056f0                gUnknown_030056F0 = .
                0x0000000000005730                . = 0x5730
 *fill*         0x00000000030056f0       0x40 
                0x0000000003005730                gUnknown_03005730 = .
                0x0000000000005740                . = 0x5740
 *fill*         0x0000000003005730       0x10 
                0x0000000003005740                gUnknown_03005740 = .
                0x0000000000005780                . = 0x5780
 *fill*         0x0000000003005740       0x40 
                0x0000000003005780                gUnknown_03005780 = .
                0x00000000000057a0                . = 0x57a0
 *fill*         0x0000000003005780       0x20 
                0x00000000030057a0                gUnknown_030057A0 = .
                0x00000000000057e0                . = 0x57e0
 *fill*         0x00000000030057a0       0x40 
                0x00000000030057e0                gUnknown_030057E0 = .
                0x0000000000005800                . = 0x5800
 *fill*         0x00000000030057e0       0x20 
                0x0000000003005800                gUnknown_03005800 = .
                0x0000000000005840                . = 0x5840
 *fill*         0x0000000003005800       0x40 
                0x0000000003005840                gUnknown_03005840 = .
                0x0000000000005860                . = 0x5860
 *fill*         0x0000000003005840       0x20 
                0x0000000003005860                gUnknown_03005860 = .
                0x0000000000005870                . = 0x5870
 *fill*         0x0000000003005860       0x10 
                0x0000000003005870                gUnknown_03005870 = .
                0x0000000000005890                . = 0x5890
 *fill*         0x0000000003005870       0x20 
                0x0000000003005890                gUnknown_03005890 = .
                0x00000000000058a8                . = 0x58a8
 *fill*         0x0000000003005890       0x18 
                0x00000000030058a8                gUnknown_030058A8 = .
                0x00000000000058b4                . = 0x58b4
 *fill*         0x00000000030058a8        0xc 
                0x00000000030058b4                gUnknown_030058B4 = .
                0x00000000000058b8                . = 0x58b8
 *fill*         0x00000000030058b4        0x4 
                0x00000000030058b8                gUnknown_030058B8 = .
                0x00000000000058bc                . = 0x58bc
 *fill*         0x00000000030058b8        0x4 
                0x00000000030058bc                gUnknown_030058BC = .
                0x00000000000058c0                . = 0x58c0
 *fill*         0x00000000030058bc        0x4 
                0x00000000030058c0                gUnknown_030058C0 = .
                0x00000000000058d0                . = 0x58d0
 *fill*         0x00000000030058c0       0x10 
                0x00000000030058d0                gUnknown_030058D0 = .
                0x0000000000005910                . = 0x5910
 *fill*         0x00000000030058d0       0x40 
                0x0000000003005910                gUnknown_03005910 = .
                0x0000000000005950                . = 0x5950
 *fill*         0x0000000003005910       0x40 
                0x0000000003005950                gUnknown_03005950 = .
                0x0000000000005990                . = 0x5990
 *fill*         0x0000000003005950       0x40 
                0x0000000003005990                gUnknown_03005990 = .
                0x00000000000059d0                . = 0x59d0
 *fill*         0x0000000003005990       0x40 
                0x00000000030059d0                gCamera = .
                0x0000000000005a0c                . = 0x5a0c
 *fill*         0x00000000030059d0       0x3c 
                0x0000000003005a0c                gUnknown_03005A0C = .
                0x0000000000005a10                . = 0x5a10
 *fill*         0x0000000003005a0c        0x4 
                0x0000000003005a10                gUnknown_03005A10 = .
                0x0000000000005a18                . = 0x5a18
 *fill*         0x0000000003005a10        0x8 
                0x0000000003005a18                gUnknown_03005A18 = .
                0x0000000000005a20                . = 0x5a20
 *fill*         0x0000000003005a18        0x8 
                0x0000000003005a20                gPlayer = .
                0x0000000000005a46                . = 0x5a46
 *fill*         0x0000000003005a20       0x26 
                0x0000000003005a46                gUnknown_03005A46 = .
                0x0000000000005a47                . = 0x5a47
 *fill*         0x0000000003005a46        0x1 
                0x0000000003005a47                gUnknown_03005A47 = .
                0x0000000000005a5c                . = 0x5a5c
 *fill*         0x0000000003005a47       0x15 
                0x0000000003005a5c                gUnknown_03005A5C = .
                0x0000000000005a5d                . = 0x5a5d
 *fill*         0x0000000003005a5c        0x1 
                0x0000000003005a5d                gUnknown_03005A5D = .
                0x0000000000005a5e                . = 0x5a5e
 *fill*         0x0000000003005a5d        0x1 
                0x0000000003005a5e                gUnknown_03005A5E = .
                0x0000000000005a60                . = 0x5a60
 *fill*         0x0000000003005a5e        0x2 
                0x0000000003005a60                gUnknown_03005A60 = .
                0x0000000000005a74                . = 0x5a74
 *fill*         0x0000000003005a60       0x14 
                0x0000000003005a74                gUnknown_03005A74 = .
                0x0000000000005a76                . = 0x5a76
 *fill*         0x0000000003005a74        0x2 
                0x0000000003005a76                gUnknown_03005A76 = .
                0x0000000000005a79                . = 0x5a79
 *fill*         0x0000000003005a76        0x3 
                0x0000000003005a79                gUnknown_03005A79 = .
                0x0000000000005a7b                . = 0x5a7b
 *fill*         0x0000000003005a79        0x2 
                0x0000000003005a7b                gUnknown_03005A7B = .
                0x0000000000005a84                . = 0x5a84
 *fill*         0x0000000003005a7b        0x9 
                0x0000000003005a84                gUnknown_03005A84 = .
                0x0000000000005a8d                . = 0x5a8d
 *fill*         0x0000000003005a84        0x9 
                0x0000000003005a8d                gUnknown_03005A8D = .
                0x0000000000005ab0                . = 0x5ab0
 *fill*         0x0000000003005a8d       0x23 
                0x0000000003005ab0                gUnknown_03005AB0 = .
                0x0000000000005ad6                . = 0x5ad6
 *fill*         0x0000000003005ab0       0x26 
                0x0000000003005ad6                gUnknown_03005AD6 = .
                0x0000000000005ad7                . = 0x5ad7
 *fill*         0x0000000003005ad6        0x1 
                0x0000000003005ad7                gUnknown_03005AD7 = .
                0x0000000000005aec                . = 0x5aec
 *fill*         0x0000000003005ad7       0x15 
                0x0000000003005aec                gUnknown_03005AEC = .
                0x0000000000005aed                . = 0x5aed
 *fill*         0x0000000003005aec        0x1 
                0x0000000003005aed                gUnknown_03005AED = .
                0x0000000000005aee                . = 0x5aee
 *fill*         0x0000000003005aed        0x1 
                0x0000000003005aee                gUnknown_03005AEE = .
                0x0000000000005af0                . = 0x5af0
 *fill*         0x0000000003005aee        0x2 
                0x0000000003005af0                gUnknown_03005AF0 = .
                0x0000000000005b04                . = 0x5b04
 *fill*         0x0000000003005af0       0x14 
                0x0000000003005b04                gUnknown_03005B04 = .
                0x0000000000005b06                . = 0x5b06
 *fill*         0x0000000003005b04        0x2 
                0x0000000003005b06                gUnknown_03005B06 = .
                0x0000000000005b09                . = 0x5b09
 *fill*         0x0000000003005b06        0x3 
                0x0000000003005b09                gUnknown_03005B09 = .
                0x0000000000005b0a                . = 0x5b0a
 *fill*         0x0000000003005b09        0x1 
                0x0000000003005b0a                gUnknown_03005B0A = .
                0x0000000000005b0b                . = 0x5b0b
 *fill*         0x0000000003005b0a        0x1 
                0x0000000003005b0b                gUnknown_03005B0B = .
                0x0000000000005b14                . = 0x5b14
 *fill*         0x0000000003005b0b        0x9 
                0x0000000003005b14                gUnknown_03005B14 = .
                0x0000000000005b1d                . = 0x5b1d
 *fill*         0x0000000003005b14        0x9 
                0x0000000003005b1d                gUnknown_03005B1D = .
                0x0000000000005b40                . = 0x5b40
 *fill*         0x0000000003005b1d       0x23 
                0x0000000003005b40                gUnknown_03005B40 = .
                0x0000000000005b90                . = 0x5b90
 *fill*         0x0000000003005b40       0x50 
                0x0000000003005b90                gUnknown_03005B90 = .
                0x0000000000005be0                . = 0x5be0
 *fill*         0x0000000003005b90       0x50 
                0x0000000003005be0                gUnknown_03005BE0 = .
                0x0000000000005bec                . = 0x5bec
 *fill*         0x0000000003005be0        0xc 
                0x0000000003005bec                gUnknown_03005BEC = .
                0x0000000000005c0d                . = 0x5c0d
 *fill*         0x0000000003005bec       0x21 
                0x0000000003005c0d                gUnknown_03005C0D = .
                0x0000000000005c14                . = 0x5c14
 *fill*         0x0000000003005c0d        0x7 
                0x0000000003005c14                gUnknown_03005C14 = .
                0x0000000000005c30                . = 0x5c30
 *fill*         0x0000000003005c14       0x1c 
                0x0000000003005c30                gUnknown_03005C30 = .
                0x0000000000005c5d                . = 0x5c5d
 *fill*         0x0000000003005c30       0x2d 
                0x0000000003005c5d                gUnknown_03005C5D = .
                0x0000000000005c64                . = 0x5c64
 *fill*         0x0000000003005c5d        0x7 
                0x0000000003005c64                gUnknown_03005C64 = .
                0x0000000000005c74                . = 0x5c74
 *fill*         0x0000000003005c64       0x10 
                0x0000000003005c74                gUnknown_03005C74 = .
                0x0000000000005c78                . = 0x5c78
 *fill*         0x0000000003005c74        0x4 
                0x0000000003005c78                gUnknown_03005C78 = .
                0x0000000000005c80                . = 0x5c80
 *fill*         0x0000000003005c78        0x8 
                0x0000000003005c80                gUnknown_03005C80 = .
                0x0000000000005e80                . = 0x5e80
 *fill*         0x0000000003005c80      0x200 
                0x0000000003005e80                gUnknown_03005E80 = .
                0x0000000000006080                . = 0x6080
 *fill*         0x0000000003005e80      0x200 
                0x0000000003006080                gUnknown_03006080 = .
                0x00000000000060d0                . = 0x60d0
 *fill*         0x0000000003006080       0x50 
                0x00000000030060d0                gInputRecorder = .
                0x00000000000060dc                . = 0x60dc
 *fill*         0x00000000030060d0        0xc 
                0x00000000030060dc                gInputRecorderTapeBuffer = .
                0x00000000000060e0                . = 0x60e0
 *fill*         0x00000000030060dc        0x4 
                0x00000000030060e0                gUnknown_030060E0 = .
                0x00000000000060f0                . = 0x60f0
 *fill*         0x00000000030060e0       0x10 
                0x00000000030060f0                gUnknown_030060F0 = .
                0x0000000000006166                . = 0x6166
 *fill*         0x00000000030060f0       0x76 
                0x0000000003006166                gUnknown_03006166 = .
                0x0000000000006170                . = 0x6170
 *fill*         0x0000000003006166        0xa 
                0x0000000003006170                gUnknown_03006170 = .
                0x00000000000061e6                . = 0x61e6
 *fill*         0x0000000003006170       0x76 
                0x00000000030061e6                gUnknown_030061E6 = .
                0x00000000000061f0                . = 0x61f0
 *fill*         0x00000000030061e6        0xa 
                0x00000000030061f0                gUnknown_030061F0 = .
                0x0000000000006240                . = 0x6240
 *fill*         0x00000000030061f0       0x50 
                0x0000000003006240                gUnknown_03006240 = .
                0x0000000000006250                . = 0x6250
 *fill*         0x0000000003006240       0x10 
                0x0000000003006250                gUnknown_03006250 = .
                0x00000000000063c0                . = 0x63c0
 *fill*         0x0000000003006250      0x170 
                0x00000000030063c0                gUnknown_030063C0 = .
                0x00000000000063f0                . = 0x63f0
 *fill*         0x00000000030063c0       0x30 
                0x00000000030063f0                gUnknown_030063F0 = .
                0x0000000000006408                . = 0x6408
 *fill*         0x00000000030063f0       0x18 
 build/sa1/src/lib/agb_flash/agb_flash.o(.data)
 .data          0x0000000003006408       0x24 build/sa1/src/lib/agb_flash/agb_flash.o
                0x0000000003006408                FlashTempA
                0x000000000300640c                FlashTempB
                0x0000000003006410                FlashTempC
                0x0000000003006414                WaitForFlashWrite
                0x0000000003006418                ProgramFlashSector
                0x000000000300641c                gFlash
                0x0000000003006420                gFlashNumRemainingBytes
                0x0000000003006424                EraseFlashChip
                0x0000000003006428                EraseFlashSector
                0x000000000000642c                . = 0x642c
                0x000000000300642c                iwram_end = .
                0x0000000000007ff0                . = 0x7ff0
 *fill*         0x000000000300642c     0x1bc4 
                0x0000000003007ff0                gUnknown_03007FF0 = .
                0x0000000000007ff8                . = 0x7ff8
 *fill*         0x0000000003007ff0        0x8 
                0x0000000003007ff8                gUnknown_03007FF8 = .
                0x0000000000007ffa                . = 0x7ffa
 *fill*         0x0000000003007ff8        0x2 
                0x0000000003007ffa                SOFT_RESET_DIRECT_BUF = .

.debug
 *(.debug)

.line
 *(.line)

.debug_srcinfo
 *(.debug_srcinfo)

.debug_sfnames
 *(.debug_sfnames)

.debug_aranges
 *(.debug_aranges)

.debug_pubnames
 *(.debug_pubnames)

.debug_info
 *(.debug_info .gnu.linkonce.wi.*)

.debug_abbrev
 *(.debug_abbrev)

.debug_line
 *(.debug_line)

.debug_frame
 *(.debug_frame)

.debug_str
 *(.debug_str)

.debug_loc
 *(.debug_loc)

.debug_macinfo
 *(.debug_macinfo)

/DISCARD/
 *(*)
LOAD build/sa1/src/input_recorder.o
LOAD build/sa1/src/sakit/dust_cloud.o
LOAD build/sa1/src/data/tilemap_data_0.o
LOAD build/sa1/src/data/sprite_dimensions.o
LOAD build/sa1/src/data/obj_palettes.o
LOAD build/sa1/src/data/entities.o
LOAD build/sa1/src/data/tilemap_data_3.o
LOAD build/sa1/src/data/tilemaps_special_stage.o
LOAD build/sa1/src/data/tilemap_data_2.o
LOAD build/sa1/src/data/entity_tables.o
LOAD build/sa1/src/data/tilemap_table.o
LOAD build/sa1/src/data/oam_data.o
LOAD build/sa1/src/main.o
LOAD build/sa1/src/lib/agb_flash/agb_flash.o
LOAD build/sa1/src/lib/agb_flash/agb_flash_le_512k.o
LOAD build/sa1/src/lib/agb_flash/agb_flash_mx_512k.o
LOAD build/sa1/src/lib/agb_flash/agb_flash_at_512k.o
LOAD build/sa1/src/lib/m4a/m4a_tables.o
LOAD build/sa1/src/lib/m4a/m4a.o
LOAD build/sa1/src/task.o
LOAD build/sa1/asm/animation_commands.o
LOAD build/sa1/asm/animation_commands_bg.o
LOAD build/sa1/asm/bg_update.o
LOAD build/sa1/asm/boss_1.o
LOAD build/sa1/asm/bosses.o
LOAD build/sa1/asm/collect_ring_effect.o
LOAD build/sa1/asm/core.o
LOAD build/sa1/asm/crt0.o
LOAD build/sa1/asm/enemy_buzzer.o
LOAD build/sa1/asm/enemy_drisame.o
LOAD build/sa1/asm/enemy_fireball.o
LOAD build/sa1/asm/enemy_gamigami.o
LOAD build/sa1/asm/enemy_hanabii.o
LOAD build/sa1/asm/enemy_kerokero.o
LOAD build/sa1/asm/enemy_kiki.o
LOAD build/sa1/asm/enemy_kuraa.o
LOAD build/sa1/asm/enemy_leon.o
LOAD build/sa1/asm/enemy_mirror.o
LOAD build/sa1/asm/enemy_mole.o
LOAD build/sa1/asm/enemy_oct.o
LOAD build/sa1/asm/enemy_pen.o
LOAD build/sa1/asm/enemy_pierrot.o
LOAD build/sa1/asm/enemy_rhinotank.o
LOAD build/sa1/asm/enemy_senbon.o
LOAD build/sa1/asm/enemy_slot.o
LOAD build/sa1/asm/enemy_tentou.o
LOAD build/sa1/asm/enemy_wamu.o
LOAD build/sa1/asm/enemy_yukimaru.o
LOAD build/sa1/asm/game_0.o
LOAD build/sa1/asm/game_1.o
LOAD build/sa1/asm/game_1_1.o
LOAD build/sa1/asm/game_1_2.o
LOAD build/sa1/asm/game_2.o
LOAD build/sa1/asm/game_tasks_0.o
LOAD build/sa1/asm/game_tasks_1.o
LOAD build/sa1/asm/ia_034.o
LOAD build/sa1/asm/ia_039.o
LOAD build/sa1/asm/ia_043.o
LOAD build/sa1/asm/ia_084.o
LOAD build/sa1/asm/ia_085_089.o
LOAD build/sa1/asm/ia_096.o
LOAD build/sa1/asm/ia_097.o
LOAD build/sa1/asm/ia_099.o
LOAD build/sa1/asm/ia_107.o
LOAD build/sa1/asm/ia_109.o
LOAD build/sa1/asm/ia_113.o
LOAD build/sa1/asm/ia_SEGA_SONIC_letter.o
LOAD build/sa1/asm/ia_air_bubbles.o
LOAD build/sa1/asm/ia_booster.o
LOAD build/sa1/asm/ia_boulder_spawner.o
LOAD build/sa1/asm/ia_bounce_block.o
LOAD build/sa1/asm/ia_bowl.o
LOAD build/sa1/asm/ia_breakable_wall.o
LOAD build/sa1/asm/ia_bumpers.o
LOAD build/sa1/asm/ia_carousel.o
LOAD build/sa1/asm/ia_checkpoint.o
LOAD build/sa1/asm/ia_conveyor_belt.o
LOAD build/sa1/asm/ia_crane_claw_lift.o
LOAD build/sa1/asm/ia_decoration.o
LOAD build/sa1/asm/ia_ferris_wheel.o
LOAD build/sa1/asm/ia_flipper.o
LOAD build/sa1/asm/ia_flipper_small_blue.o
LOAD build/sa1/asm/ia_forced_ice_slide.o
LOAD build/sa1/asm/ia_grind_rail.o
LOAD build/sa1/asm/ia_half_pipe.o
LOAD build/sa1/asm/ia_hang_bar.o
LOAD build/sa1/asm/ia_hook_rail.o
LOAD build/sa1/asm/ia_ice_block.o
LOAD build/sa1/asm/ia_incline_ramp.o
LOAD build/sa1/asm/ia_iron_ball.o
LOAD build/sa1/asm/ia_itembox_chaohunt.o
LOAD build/sa1/asm/ia_lava.o
LOAD build/sa1/asm/ia_marble_track.o
LOAD build/sa1/asm/ia_mini_loop.o
LOAD build/sa1/asm/ia_mini_loop_base.o
LOAD build/sa1/asm/ia_moving_spring.o
LOAD build/sa1/asm/ia_panel_gate.o
LOAD build/sa1/asm/ia_party_balloon.o
LOAD build/sa1/asm/ia_pipe.o
LOAD build/sa1/asm/ia_platform_crumbling.o
LOAD build/sa1/asm/ia_platform_spiked.o
LOAD build/sa1/asm/ia_platform_square.o
LOAD build/sa1/asm/ia_platform_thin.o
LOAD build/sa1/asm/ia_red_flag.o
LOAD build/sa1/asm/ia_run_wheel.o
LOAD build/sa1/asm/ia_security_gate.o
LOAD build/sa1/asm/ia_ship_swing.o
LOAD build/sa1/asm/ia_shrubbery.o
LOAD build/sa1/asm/ia_small_fall_block.o
LOAD build/sa1/asm/ia_special_spring.o
LOAD build/sa1/asm/ia_spiked_barrel.o
LOAD build/sa1/asm/ia_spiked_barrel_chaohunt.o
LOAD build/sa1/asm/ia_spikes.o
LOAD build/sa1/asm/ia_spring.o
LOAD build/sa1/asm/ia_spring_hiding.o
LOAD build/sa1/asm/ia_stage_goal.o
LOAD build/sa1/asm/ia_steam_exhaust.o
LOAD build/sa1/asm/ia_swing_rope.o
LOAD build/sa1/asm/ia_swinging_hook.o
LOAD build/sa1/asm/ia_teleport_orb.o
LOAD build/sa1/asm/ia_to_be_continued_text.o
LOAD build/sa1/asm/ia_toggle_player_float.o
LOAD build/sa1/asm/ia_toggle_player_layer.o
LOAD build/sa1/asm/ia_toggle_player_visibility.o
LOAD build/sa1/asm/ia_torch.o
LOAD build/sa1/asm/ia_track.o
LOAD build/sa1/asm/ia_track_air_corner.o
LOAD build/sa1/asm/ia_trampoline.o
LOAD build/sa1/asm/ia_underwater_lava_platform.o
LOAD build/sa1/asm/ia_wall_bumper.o
LOAD build/sa1/asm/ia_water_bridge.o
LOAD build/sa1/asm/ia_waterfall.o
LOAD build/sa1/asm/item_box.o
LOAD build/sa1/asm/lib_m4a.o
LOAD build/sa1/asm/libagbsyscall.o
LOAD build/sa1/asm/m4a0.o
LOAD build/sa1/asm/malloc_ewram.o
LOAD build/sa1/asm/malloc_vram.o
LOAD build/sa1/asm/multi_boot.o
LOAD build/sa1/asm/multi_sio.o
LOAD build/sa1/asm/multi_sio_asm.o
LOAD build/sa1/asm/rom_footer.o
LOAD build/sa1/asm/rom_header.o
LOAD build/sa1/asm/rom_header_old.o
LOAD build/sa1/asm/sakit__ring__magnetic_ring.o
LOAD build/sa1/asm/sio32_multi_load.o
LOAD build/sa1/asm/sound_unk.o
LOAD build/sa1/asm/sprite.o
LOAD build/sa1/asm/sprite_4.o
LOAD build/sa1/asm/stage__entities_manager.o
LOAD build/sa1/asm/stage__rings_manager.o
LOAD build/sa1/asm/task.o
LOAD build/sa1/data/animations.o
LOAD build/sa1/data/chao_garden.o
LOAD build/sa1/data/data1.o
LOAD build/sa1/data/data_0.o
LOAD build/sa1/data/data_0_1.o
LOAD build/sa1/data/data_0_2.o
LOAD build/sa1/data/data_0_3.o
LOAD build/sa1/data/data_0_3_2.o
LOAD build/sa1/data/data_0_4.o
LOAD build/sa1/data/data_0_5.o
LOAD build/sa1/data/gSpriteTables.o
LOAD build/sa1/data/obj_gfx.o
LOAD build/sa1/data/sound_data.o
LOAD build/sa1/sound/songs/song001.o
LOAD build/sa1/sound/songs/song002.o
LOAD build/sa1/sound/songs/song003.o
LOAD build/sa1/sound/songs/song004.o
LOAD build/sa1/sound/songs/song005.o
LOAD build/sa1/sound/songs/song006.o
LOAD build/sa1/sound/songs/song007.o
LOAD build/sa1/sound/songs/song008.o
LOAD build/sa1/sound/songs/song009.o
LOAD build/sa1/sound/songs/song010.o
LOAD build/sa1/sound/songs/song011.o
LOAD build/sa1/sound/songs/song012.o
LOAD build/sa1/sound/songs/song013.o
LOAD build/sa1/sound/songs/song014.o
LOAD build/sa1/sound/songs/song015.o
LOAD build/sa1/sound/songs/song016.o
LOAD build/sa1/sound/songs/song017.o
LOAD build/sa1/sound/songs/song018.o
LOAD build/sa1/sound/songs/song019.o
LOAD build/sa1/sound/songs/song020.o
LOAD build/sa1/sound/songs/song021.o
LOAD build/sa1/sound/songs/song022.o
LOAD build/sa1/sound/songs/song023.o
LOAD build/sa1/sound/songs/song024.o
LOAD build/sa1/sound/songs/song025.o
LOAD build/sa1/sound/songs/song026.o
LOAD build/sa1/sound/songs/song027.o
LOAD build/sa1/sound/songs/song028.o
LOAD build/sa1/sound/songs/song029.o
LOAD build/sa1/sound/songs/song030.o
LOAD build/sa1/sound/songs/song031.o
LOAD build/sa1/sound/songs/song032.o
LOAD build/sa1/sound/songs/song033.o
LOAD build/sa1/sound/songs/song034.o
LOAD build/sa1/sound/songs/song035.o
LOAD build/sa1/sound/songs/song036.o
LOAD build/sa1/sound/songs/song037.o
LOAD build/sa1/sound/songs/song038.o
LOAD build/sa1/sound/songs/song039.o
LOAD build/sa1/sound/songs/song040.o
LOAD build/sa1/sound/songs/song041.o
LOAD build/sa1/sound/songs/song042.o
LOAD build/sa1/sound/songs/song043.o
LOAD build/sa1/sound/songs/song044.o
LOAD build/sa1/sound/songs/song045.o
LOAD build/sa1/sound/songs/song046.o
LOAD build/sa1/sound/songs/song047.o
LOAD build/sa1/sound/songs/song048.o
LOAD build/sa1/sound/songs/song049.o
LOAD build/sa1/sound/songs/song050.o
LOAD build/sa1/sound/songs/song051.o
LOAD build/sa1/sound/songs/song052.o
LOAD build/sa1/sound/songs/song053.o
LOAD build/sa1/sound/songs/song054.o
LOAD build/sa1/sound/songs/song102.o
LOAD build/sa1/sound/songs/song103.o
LOAD build/sa1/sound/songs/song104.o
LOAD build/sa1/sound/songs/song105.o
LOAD build/sa1/sound/songs/song106.o
LOAD build/sa1/sound/songs/song107.o
LOAD build/sa1/sound/songs/song108.o
LOAD build/sa1/sound/songs/song109.o
LOAD build/sa1/sound/songs/song110.o
LOAD build/sa1/sound/songs/song111.o
LOAD build/sa1/sound/songs/song112.o
LOAD build/sa1/sound/songs/song113.o
LOAD build/sa1/sound/songs/song114.o
LOAD build/sa1/sound/songs/song115.o
LOAD build/sa1/sound/songs/song116.o
LOAD build/sa1/sound/songs/song117.o
LOAD build/sa1/sound/songs/song118.o
LOAD build/sa1/sound/songs/song119.o
LOAD build/sa1/sound/songs/song120.o
LOAD build/sa1/sound/songs/song121.o
LOAD build/sa1/sound/songs/song122.o
LOAD build/sa1/sound/songs/song123.o
LOAD build/sa1/sound/songs/song124.o
LOAD build/sa1/sound/songs/song125.o
LOAD build/sa1/sound/songs/song126.o
LOAD build/sa1/sound/songs/song127.o
LOAD build/sa1/sound/songs/song128.o
LOAD build/sa1/sound/songs/song129.o
LOAD build/sa1/sound/songs/song130.o
LOAD build/sa1/sound/songs/song131.o
LOAD build/sa1/sound/songs/song132.o
LOAD build/sa1/sound/songs/song133.o
LOAD build/sa1/sound/songs/song134.o
LOAD build/sa1/sound/songs/song135.o
LOAD build/sa1/sound/songs/song136.o
LOAD build/sa1/sound/songs/song137.o
LOAD build/sa1/sound/songs/song138.o
LOAD build/sa1/sound/songs/song139.o
LOAD build/sa1/sound/songs/song140.o
LOAD build/sa1/sound/songs/song141.o
LOAD build/sa1/sound/songs/song142.o
LOAD build/sa1/sound/songs/song143.o
LOAD build/sa1/sound/songs/song144.o
LOAD build/sa1/sound/songs/song145.o
LOAD build/sa1/sound/songs/song146.o
LOAD build/sa1/sound/songs/song147.o
LOAD build/sa1/sound/songs/song148.o
LOAD build/sa1/sound/songs/song149.o
LOAD build/sa1/sound/songs/song150.o
LOAD build/sa1/sound/songs/song151.o
LOAD build/sa1/sound/songs/song152.o
LOAD build/sa1/sound/songs/song153.o
LOAD build/sa1/sound/songs/song154.o
LOAD build/sa1/sound/songs/song155.o
LOAD build/sa1/sound/songs/song156.o
LOAD build/sa1/sound/songs/song157.o
LOAD build/sa1/sound/songs/song158.o
LOAD build/sa1/sound/songs/song159.o
LOAD build/sa1/sound/songs/song160.o
LOAD build/sa1/sound/songs/song161.o
LOAD build/sa1/sound/songs/song162.o
LOAD build/sa1/sound/songs/song163.o
LOAD build/sa1/sound/songs/song164.o
LOAD build/sa1/sound/songs/song166.o
LOAD build/sa1/sound/songs/song167.o
LOAD build/sa1/sound/songs/song168.o
LOAD build/sa1/sound/songs/song169.o
LOAD build/sa1/sound/songs/song170.o
LOAD build/sa1/sound/songs/song171.o
LOAD build/sa1/sound/songs/song172.o
LOAD build/sa1/sound/songs/song173.o
LOAD build/sa1/sound/songs/song174.o
LOAD build/sa1/sound/songs/song175.o
LOAD build/sa1/sound/songs/song176.o
LOAD build/sa1/sound/songs/song177.o
LOAD build/sa1/sound/songs/song178.o
LOAD build/sa1/sound/songs/song179.o
LOAD build/sa1/sound/songs/song180.o
LOAD build/sa1/sound/songs/song181.o
LOAD build/sa1/sound/songs/song182.o
LOAD build/sa1/sound/songs/song183.o
LOAD build/sa1/sound/songs/song184.o
LOAD build/sa1/sound/songs/song185.o
LOAD build/sa1/sound/songs/song188.o
LOAD build/sa1/sound/songs/song189.o
LOAD build/sa1/sound/songs/song190.o
LOAD build/sa1/sound/songs/song191.o
LOAD build/sa1/sound/songs/song192.o
LOAD build/sa1/sound/songs/song193.o
LOAD build/sa1/sound/songs/song194.o
LOAD build/sa1/sound/songs/song195.o
LOAD build/sa1/sound/songs/song196.o
LOAD build/sa1/sound/songs/song198.o
LOAD build/sa1/sound/songs/song199.o
LOAD build/sa1/sound/songs/song200.o
LOAD build/sa1/sound/songs/song201.o
LOAD build/sa1/sound/songs/song202.o
LOAD build/sa1/sound/songs/song203.o
LOAD build/sa1/sound/songs/song204.o
LOAD build/sa1/sound/songs/song205.o
LOAD build/sa1/sound/songs/song206.o
LOAD build/sa1/sound/songs/song207.o
LOAD build/sa1/sound/songs/song208.o
LOAD build/sa1/sound/songs/song209.o
LOAD build/sa1/sound/songs/song210.o
LOAD build/sa1/sound/songs/song211.o
LOAD build/sa1/sound/songs/song212.o
LOAD build/sa1/sound/songs/song213.o
LOAD build/sa1/sound/songs/song214.o
LOAD build/sa1/sound/songs/song215.o
LOAD build/sa1/sound/songs/song216.o
LOAD build/sa1/sound/songs/song217.o
LOAD build/sa1/sound/songs/song218.o
LOAD build/sa1/sound/songs/song219.o
LOAD build/sa1/sound/songs/song220.o
LOAD build/sa1/sound/songs/song221.o
LOAD build/sa1/sound/songs/song222.o
LOAD build/sa1/sound/songs/song223.o
LOAD build/sa1/sound/songs/song224.o
LOAD build/sa1/sound/songs/song301.o
LOAD build/sa1/sound/songs/song302.o
LOAD build/sa1/sound/songs/song303.o
LOAD build/sa1/sound/songs/song304.o
LOAD build/sa1/sound/songs/song305.o
LOAD build/sa1/sound/songs/song306.o
LOAD build/sa1/sound/songs/song307.o
LOAD tools/agbcc/lib/libgcc.a
LOAD tools/agbcc/lib/libc.a
OUTPUT(sa1.elf elf32-littlearm)
LOAD linker stubs
